; generated by ARM C/C++ Compiler with , RVCT4.0 [Build 524] for uVision
; commandline ArmCC [--debug -c --asm --interleave -o..\OBJ\ili93xx.o --depend=..\OBJ\ili93xx.d --device=DARMSTM --apcs=interwork -O0 -I..\SYSTEM\delay -I..\SYSTEM\sys -I..\SYSTEM\usart -I..\USMART -I..\HARDWARE\LED -I..\HARDWARE\BEEP -I..\HARDWARE\KEY -I..\HARDWARE\EXTI -I..\HARDWARE\WDG -I..\HARDWARE\TIMER -I..\HARDWARE\TPAD -I..\HARDWARE\OLED -I..\HARDWARE\LCD -I..\HARDWARE\RTC -I..\HARDWARE\WKUP -I..\HARDWARE\ADC -I..\HARDWARE\DAC -I..\HARDWARE\DMA -I..\HARDWARE\24CXX -I..\HARDWARE\SPI -I..\HARDWARE\FLASH -I..\USER -I..\USB\LIB -I..\USB\CONFIG -IC:\Keil\ARM\INC\ST\STM32F10x --omf_browse=..\OBJ\ili93xx.crf ..\HARDWARE\LCD\ILI93xx.c]
                          THUMB

                          AREA ||.text||, CODE, READONLY, ALIGN=2

                  LCD_WR_REG PROC
;;;65     //regval:寄存器值
;;;66     void LCD_WR_REG(u16 regval)
000000  49fc              LDR      r1,|L1.1012|
;;;67     { 
;;;68     	LCD->LCD_REG=regval;//写入要写的寄存器序号	 
000002  8008              STRH     r0,[r1,#0]
;;;69     }
000004  4770              BX       lr
;;;70     //写LCD数据
                          ENDP

                  LCD_WR_DATA PROC
;;;71     //data:要写入的值
;;;72     void LCD_WR_DATA(u16 data)
000006  49fb              LDR      r1,|L1.1012|
;;;73     {										    	   
;;;74     	LCD->LCD_RAM=data;		 
000008  1c89              ADDS     r1,r1,#2
00000a  8008              STRH     r0,[r1,#0]
;;;75     }
00000c  4770              BX       lr
;;;76     //读LCD数据
                          ENDP

                  LCD_RD_DATA PROC
;;;77     //返回值:读到的值
;;;78     u16 LCD_RD_DATA(void)
00000e  48f9              LDR      r0,|L1.1012|
;;;79     {										    	   
;;;80     	return LCD->LCD_RAM;		 
000010  1c80              ADDS     r0,r0,#2
000012  8800              LDRH     r0,[r0,#0]
;;;81     }					   
000014  4770              BX       lr
;;;82     //写寄存器
                          ENDP

                  LCD_WriteReg PROC
;;;84     //LCD_RegValue:要写入的数据
;;;85     void LCD_WriteReg(u8 LCD_Reg, u16 LCD_RegValue)
000016  4af7              LDR      r2,|L1.1012|
;;;86     {	
;;;87     	LCD->LCD_REG = LCD_Reg;		//写入要写的寄存器序号	 
000018  8010              STRH     r0,[r2,#0]
;;;88     	LCD->LCD_RAM = LCD_RegValue;//写入数据	    		 
00001a  f04f42d8          MOV      r2,#0x6c000000
00001e  f8a21800          STRH     r1,[r2,#0x800]
;;;89     }	   
000022  4770              BX       lr
;;;90     //读寄存器
                          ENDP

                  LCD_ReadReg PROC
;;;92     //返回值:读到的数据
;;;93     u16 LCD_ReadReg(u8 LCD_Reg)
000024  b510              PUSH     {r4,lr}
;;;94     {										   
000026  4604              MOV      r4,r0
;;;95     	LCD_WR_REG(LCD_Reg);		//写入要读的寄存器序号
000028  4620              MOV      r0,r4
00002a  f7fffffe          BL       LCD_WR_REG
;;;96     	delay_us(5);		  
00002e  2005              MOVS     r0,#5
000030  f7fffffe          BL       delay_us
;;;97     	return LCD_RD_DATA();		//返回读到的值
000034  f7fffffe          BL       LCD_RD_DATA
;;;98     }   
000038  bd10              POP      {r4,pc}
;;;99     //开始写GRAM
                          ENDP

                  LCD_WriteRAM_Prepare PROC
;;;100    void LCD_WriteRAM_Prepare(void)
00003a  48ef              LDR      r0,|L1.1016|
;;;101    {
;;;102     	LCD->LCD_REG=lcddev.wramcmd;	  
00003c  79c0              LDRB     r0,[r0,#7]  ; lcddev
00003e  49ed              LDR      r1,|L1.1012|
000040  8008              STRH     r0,[r1,#0]
;;;103    }	 
000042  4770              BX       lr
;;;104    //LCD写GRAM
                          ENDP

                  LCD_WriteRAM PROC
;;;105    //RGB_Code:颜色值
;;;106    void LCD_WriteRAM(u16 RGB_Code)
000044  49eb              LDR      r1,|L1.1012|
;;;107    {							    
;;;108    	LCD->LCD_RAM = RGB_Code;//写十六位GRAM
000046  1c89              ADDS     r1,r1,#2
000048  8008              STRH     r0,[r1,#0]
;;;109    }
00004a  4770              BX       lr
;;;110    //从ILI93xx读出的数据为GBR格式，而我们写入的时候为RGB格式。
                          ENDP

                  LCD_BGR2RGB PROC
;;;113    //返回值：RGB格式的颜色值
;;;114    u16 LCD_BGR2RGB(u16 c)
00004c  b530              PUSH     {r4,r5,lr}
;;;115    {
00004e  4601              MOV      r1,r0
;;;116    	u16  r,g,b,rgb;   
;;;117    	b=(c>>0)&0x1f;
000050  f001041f          AND      r4,r1,#0x1f
;;;118    	g=(c>>5)&0x3f;
000054  f3c11345          UBFX     r3,r1,#5,#6
;;;119    	r=(c>>11)&0x1f;	 
000058  0aca              LSRS     r2,r1,#11
;;;120    	rgb=(b<<11)+(g<<5)+(r<<0);		 
00005a  02e5              LSLS     r5,r4,#11
00005c  eb051543          ADD      r5,r5,r3,LSL #5
000060  4415              ADD      r5,r5,r2
000062  b2a8              UXTH     r0,r5
;;;121    	return(rgb);
;;;122    } 
000064  bd30              POP      {r4,r5,pc}
;;;123    //当mdk -O1时间优化时需要设置
                          ENDP

                  opt_delay PROC
;;;124    //延时i
;;;125    void opt_delay(u8 i)
000066  bf00              NOP      
                  |L1.104|
;;;126    {
;;;127    	while(i--);
000068  0001              MOVS     r1,r0
00006a  f1a00201          SUB      r2,r0,#1
00006e  b2d0              UXTB     r0,r2
000070  d1fa              BNE      |L1.104|
;;;128    }
000072  4770              BX       lr
;;;129    //读取个某点的颜色值	 
                          ENDP

                  LCD_SetCursor PROC
;;;168    //Ypos:纵坐标
;;;169    void LCD_SetCursor(u16 Xpos, u16 Ypos)
000074  b510              PUSH     {r4,lr}
;;;170    {	 
000076  4603              MOV      r3,r0
000078  460c              MOV      r4,r1
;;;171     	if(lcddev.id==0X9341)
00007a  48df              LDR      r0,|L1.1016|
00007c  8880              LDRH     r0,[r0,#4]  ; lcddev
00007e  f5a04113          SUB      r1,r0,#0x9300
000082  3941              SUBS     r1,r1,#0x41
000084  d114              BNE      |L1.176|
;;;172    	{		    
;;;173    		LCD_WR_REG(lcddev.setxcmd); 
000086  49dc              LDR      r1,|L1.1016|
000088  7a08              LDRB     r0,[r1,#8]  ; lcddev
00008a  f7fffffe          BL       LCD_WR_REG
;;;174    		LCD_WR_DATA(Xpos>>8); 
00008e  1218              ASRS     r0,r3,#8
000090  f7fffffe          BL       LCD_WR_DATA
;;;175    		LCD_WR_DATA(Xpos&0XFF);	 
000094  b2d8              UXTB     r0,r3
000096  f7fffffe          BL       LCD_WR_DATA
;;;176    		LCD_WR_REG(lcddev.setycmd); 
00009a  49d7              LDR      r1,|L1.1016|
00009c  7a48              LDRB     r0,[r1,#9]  ; lcddev
00009e  f7fffffe          BL       LCD_WR_REG
;;;177    		LCD_WR_DATA(Ypos>>8); 
0000a2  1220              ASRS     r0,r4,#8
0000a4  f7fffffe          BL       LCD_WR_DATA
;;;178    		LCD_WR_DATA(Ypos&0XFF);
0000a8  b2e0              UXTB     r0,r4
0000aa  f7fffffe          BL       LCD_WR_DATA
0000ae  e036              B        |L1.286|
                  |L1.176|
;;;179    	}else if(lcddev.id==0X6804)
0000b0  48d1              LDR      r0,|L1.1016|
0000b2  8880              LDRH     r0,[r0,#4]  ; lcddev
0000b4  f5a041d0          SUB      r1,r0,#0x6800
0000b8  3904              SUBS     r1,#4
0000ba  d11d              BNE      |L1.248|
;;;180    	{
;;;181    		if(lcddev.dir==1)Xpos=lcddev.width-1-Xpos;//横屏时处理
0000bc  48ce              LDR      r0,|L1.1016|
0000be  7980              LDRB     r0,[r0,#6]  ; lcddev
0000c0  2801              CMP      r0,#1
0000c2  d104              BNE      |L1.206|
0000c4  48cc              LDR      r0,|L1.1016|
0000c6  8800              LDRH     r0,[r0,#0]  ; lcddev
0000c8  1e40              SUBS     r0,r0,#1
0000ca  1ac0              SUBS     r0,r0,r3
0000cc  b283              UXTH     r3,r0
                  |L1.206|
;;;182    		LCD_WR_REG(lcddev.setxcmd); 
0000ce  49ca              LDR      r1,|L1.1016|
0000d0  7a08              LDRB     r0,[r1,#8]  ; lcddev
0000d2  f7fffffe          BL       LCD_WR_REG
;;;183    		LCD_WR_DATA(Xpos>>8); 
0000d6  1218              ASRS     r0,r3,#8
0000d8  f7fffffe          BL       LCD_WR_DATA
;;;184    		LCD_WR_DATA(Xpos&0XFF);	 
0000dc  b2d8              UXTB     r0,r3
0000de  f7fffffe          BL       LCD_WR_DATA
;;;185    		LCD_WR_REG(lcddev.setycmd); 
0000e2  49c5              LDR      r1,|L1.1016|
0000e4  7a48              LDRB     r0,[r1,#9]  ; lcddev
0000e6  f7fffffe          BL       LCD_WR_REG
;;;186    		LCD_WR_DATA(Ypos>>8); 
0000ea  1220              ASRS     r0,r4,#8
0000ec  f7fffffe          BL       LCD_WR_DATA
;;;187    		LCD_WR_DATA(Ypos&0XFF);
0000f0  b2e0              UXTB     r0,r4
0000f2  f7fffffe          BL       LCD_WR_DATA
0000f6  e012              B        |L1.286|
                  |L1.248|
;;;188    	}else
;;;189    	{
;;;190    		if(lcddev.dir==1)Xpos=lcddev.width-1-Xpos;//横屏其实就是调转x,y坐标
0000f8  48bf              LDR      r0,|L1.1016|
0000fa  7980              LDRB     r0,[r0,#6]  ; lcddev
0000fc  2801              CMP      r0,#1
0000fe  d104              BNE      |L1.266|
000100  48bd              LDR      r0,|L1.1016|
000102  8800              LDRH     r0,[r0,#0]  ; lcddev
000104  1e40              SUBS     r0,r0,#1
000106  1ac0              SUBS     r0,r0,r3
000108  b283              UXTH     r3,r0
                  |L1.266|
;;;191    		LCD_WriteReg(lcddev.setxcmd, Xpos);
00010a  49bb              LDR      r1,|L1.1016|
00010c  7a08              LDRB     r0,[r1,#8]  ; lcddev
00010e  4619              MOV      r1,r3
000110  f7fffffe          BL       LCD_WriteReg
;;;192    		LCD_WriteReg(lcddev.setycmd, Ypos);
000114  49b8              LDR      r1,|L1.1016|
000116  7a48              LDRB     r0,[r1,#9]  ; lcddev
000118  4621              MOV      r1,r4
00011a  f7fffffe          BL       LCD_WriteReg
                  |L1.286|
;;;193    	}	 
;;;194    } 		 
00011e  bd10              POP      {r4,pc}
;;;195    //设置LCD的自动扫描方向
                          ENDP

                  LCD_ReadPoint PROC
;;;131    //返回值:此点的颜色
;;;132    u16 LCD_ReadPoint(u16 x,u16 y)
000120  e92d41f0          PUSH     {r4-r8,lr}
;;;133    {
000124  4604              MOV      r4,r0
000126  460d              MOV      r5,r1
;;;134     	u16 r=0,g=0,b=0;
000128  2600              MOVS     r6,#0
00012a  2700              MOVS     r7,#0
00012c  46b0              MOV      r8,r6
;;;135    	if(x>=lcddev.width||y>=lcddev.height)return 0;	//超过了范围,直接返回		   
00012e  48b2              LDR      r0,|L1.1016|
000130  8800              LDRH     r0,[r0,#0]  ; lcddev
000132  42a0              CMP      r0,r4
000134  dd03              BLE      |L1.318|
000136  48b0              LDR      r0,|L1.1016|
000138  8840              LDRH     r0,[r0,#2]  ; lcddev
00013a  42a8              CMP      r0,r5
00013c  dc02              BGT      |L1.324|
                  |L1.318|
00013e  2000              MOVS     r0,#0
                  |L1.320|
;;;136    	LCD_SetCursor(x,y);	    
;;;137    	if(lcddev.id==0X9341||lcddev.id==0X6804)LCD_WR_REG(0X2E);//9341/6804 发送读GRAM指令
;;;138    	else LCD_WR_REG(R34);      		 				//其他IC发送读GRAM指令
;;;139     	if(lcddev.id==0X9320)opt_delay(2);				//FOR 9320,延时2us	    
;;;140    	if(LCD->LCD_RAM)r=0;							//dummy Read	   
;;;141    	opt_delay(2);	  
;;;142     	r=LCD->LCD_RAM;  		  						//实际坐标颜色
;;;143     	if(lcddev.id==0X9341)//9341要分2次读出
;;;144     	{
;;;145    		opt_delay(2);	  
;;;146    		b=LCD->LCD_RAM; 
;;;147    		g=r&0XFF;//对于9341,第一次读取的是RG的值,R在前,G在后,各占8位
;;;148    		g<<=8;
;;;149    	}else if(lcddev.id==0X6804)r=LCD->LCD_RAM;		//6804第二次读取的才是真实值
;;;150    	if(lcddev.id==0X9325||lcddev.id==0X4535||lcddev.id==0X4531||lcddev.id==0X8989||lcddev.id==0XB505)return r;//这几种IC直接返回颜色值
;;;151    	else if(lcddev.id==0X9341)return (((r>>11)<<11)|((g>>10)<<5)|(b>>11));	//ILI9341需要公式转换一下
;;;152    	else return LCD_BGR2RGB(r);												//其他IC
;;;153    }			 
000140  e8bd81f0          POP      {r4-r8,pc}
                  |L1.324|
000144  4629              MOV      r1,r5                 ;136
000146  4620              MOV      r0,r4                 ;136
000148  f7fffffe          BL       LCD_SetCursor
00014c  48aa              LDR      r0,|L1.1016|
00014e  8880              LDRH     r0,[r0,#4]            ;137  ; lcddev
000150  f5a04113          SUB      r1,r0,#0x9300         ;137
000154  3941              SUBS     r1,r1,#0x41           ;137
000156  d005              BEQ      |L1.356|
000158  48a7              LDR      r0,|L1.1016|
00015a  8880              LDRH     r0,[r0,#4]            ;137  ; lcddev
00015c  f5a041d0          SUB      r1,r0,#0x6800         ;137
000160  3904              SUBS     r1,#4                 ;137
000162  d103              BNE      |L1.364|
                  |L1.356|
000164  202e              MOVS     r0,#0x2e              ;137
000166  f7fffffe          BL       LCD_WR_REG
00016a  e002              B        |L1.370|
                  |L1.364|
00016c  2022              MOVS     r0,#0x22              ;138
00016e  f7fffffe          BL       LCD_WR_REG
                  |L1.370|
000172  48a1              LDR      r0,|L1.1016|
000174  8880              LDRH     r0,[r0,#4]            ;139  ; lcddev
000176  f5a04113          SUB      r1,r0,#0x9300         ;139
00017a  3920              SUBS     r1,r1,#0x20           ;139
00017c  d102              BNE      |L1.388|
00017e  2002              MOVS     r0,#2                 ;139
000180  f7fffffe          BL       opt_delay
                  |L1.388|
000184  489b              LDR      r0,|L1.1012|
000186  1c80              ADDS     r0,r0,#2              ;140
000188  8800              LDRH     r0,[r0,#0]            ;140
00018a  b100              CBZ      r0,|L1.398|
00018c  2600              MOVS     r6,#0                 ;140
                  |L1.398|
00018e  2002              MOVS     r0,#2                 ;141
000190  f7fffffe          BL       opt_delay
000194  4897              LDR      r0,|L1.1012|
000196  1c80              ADDS     r0,r0,#2              ;142
000198  8806              LDRH     r6,[r0,#0]            ;142
00019a  4897              LDR      r0,|L1.1016|
00019c  8880              LDRH     r0,[r0,#4]            ;143  ; lcddev
00019e  f5a04113          SUB      r1,r0,#0x9300         ;143
0001a2  3941              SUBS     r1,r1,#0x41           ;143
0001a4  d109              BNE      |L1.442|
0001a6  2002              MOVS     r0,#2                 ;145
0001a8  f7fffffe          BL       opt_delay
0001ac  4891              LDR      r0,|L1.1012|
0001ae  1c80              ADDS     r0,r0,#2              ;146
0001b0  f8b08000          LDRH     r8,[r0,#0]            ;146
0001b4  b2f7              UXTB     r7,r6                 ;147
0001b6  023f              LSLS     r7,r7,#8              ;148
0001b8  e008              B        |L1.460|
                  |L1.442|
0001ba  488f              LDR      r0,|L1.1016|
0001bc  8880              LDRH     r0,[r0,#4]            ;149  ; lcddev
0001be  f5a041d0          SUB      r1,r0,#0x6800         ;149
0001c2  3904              SUBS     r1,#4                 ;149
0001c4  d102              BNE      |L1.460|
0001c6  488b              LDR      r0,|L1.1012|
0001c8  1c80              ADDS     r0,r0,#2              ;149
0001ca  8806              LDRH     r6,[r0,#0]            ;149
                  |L1.460|
0001cc  488a              LDR      r0,|L1.1016|
0001ce  8880              LDRH     r0,[r0,#4]            ;150  ; lcddev
0001d0  f5a04113          SUB      r1,r0,#0x9300         ;150
0001d4  3925              SUBS     r1,r1,#0x25           ;150
0001d6  d017              BEQ      |L1.520|
0001d8  4887              LDR      r0,|L1.1016|
0001da  8880              LDRH     r0,[r0,#4]            ;150  ; lcddev
0001dc  f5a0418a          SUB      r1,r0,#0x4500         ;150
0001e0  3935              SUBS     r1,r1,#0x35           ;150
0001e2  d011              BEQ      |L1.520|
0001e4  4884              LDR      r0,|L1.1016|
0001e6  8880              LDRH     r0,[r0,#4]            ;150  ; lcddev
0001e8  f5a0418a          SUB      r1,r0,#0x4500         ;150
0001ec  3931              SUBS     r1,r1,#0x31           ;150
0001ee  d00b              BEQ      |L1.520|
0001f0  4881              LDR      r0,|L1.1016|
0001f2  8880              LDRH     r0,[r0,#4]            ;150  ; lcddev
0001f4  f5a04109          SUB      r1,r0,#0x8900         ;150
0001f8  3989              SUBS     r1,r1,#0x89           ;150
0001fa  d005              BEQ      |L1.520|
0001fc  487e              LDR      r0,|L1.1016|
0001fe  8880              LDRH     r0,[r0,#4]            ;150  ; lcddev
000200  f5a04135          SUB      r1,r0,#0xb500         ;150
000204  3905              SUBS     r1,#5                 ;150
000206  d101              BNE      |L1.524|
                  |L1.520|
000208  4630              MOV      r0,r6                 ;150
00020a  e799              B        |L1.320|
                  |L1.524|
00020c  487a              LDR      r0,|L1.1016|
00020e  8880              LDRH     r0,[r0,#4]            ;151  ; lcddev
000210  f5a04113          SUB      r1,r0,#0x9300         ;151
000214  3941              SUBS     r1,r1,#0x41           ;151
000216  d107              BNE      |L1.552|
000218  12f0              ASRS     r0,r6,#11             ;151
00021a  02c0              LSLS     r0,r0,#11             ;151
00021c  12b9              ASRS     r1,r7,#10             ;151
00021e  ea401041          ORR      r0,r0,r1,LSL #5       ;151
000222  ea4020e8          ORR      r0,r0,r8,ASR #11      ;151
000226  e78b              B        |L1.320|
                  |L1.552|
000228  4630              MOV      r0,r6                 ;152
00022a  f7fffffe          BL       LCD_BGR2RGB
00022e  e787              B        |L1.320|
;;;154    //LCD开启显示
                          ENDP

                  LCD_DisplayOn PROC
;;;155    void LCD_DisplayOn(void)
000230  b500              PUSH     {lr}
;;;156    {					   
;;;157    	if(lcddev.id==0X9341||lcddev.id==0X6804)LCD_WR_REG(0X29);	//开启显示
000232  4871              LDR      r0,|L1.1016|
000234  8880              LDRH     r0,[r0,#4]  ; lcddev
000236  f5a04113          SUB      r1,r0,#0x9300
00023a  3941              SUBS     r1,r1,#0x41
00023c  d005              BEQ      |L1.586|
00023e  486e              LDR      r0,|L1.1016|
000240  8880              LDRH     r0,[r0,#4]  ; lcddev
000242  f5a041d0          SUB      r1,r0,#0x6800
000246  3904              SUBS     r1,#4
000248  d103              BNE      |L1.594|
                  |L1.586|
00024a  2029              MOVS     r0,#0x29
00024c  f7fffffe          BL       LCD_WR_REG
000250  e004              B        |L1.604|
                  |L1.594|
;;;158    	else LCD_WriteReg(R7,0x0173); 								//开启显示
000252  f2401173          MOV      r1,#0x173
000256  2007              MOVS     r0,#7
000258  f7fffffe          BL       LCD_WriteReg
                  |L1.604|
;;;159    }	 
00025c  bd00              POP      {pc}
;;;160    //LCD关闭显示
                          ENDP

                  LCD_DisplayOff PROC
;;;161    void LCD_DisplayOff(void)
00025e  b500              PUSH     {lr}
;;;162    {	   
;;;163    	if(lcddev.id==0X9341||lcddev.id==0X6804)LCD_WR_REG(0X28);	//关闭显示
000260  4865              LDR      r0,|L1.1016|
000262  8880              LDRH     r0,[r0,#4]  ; lcddev
000264  f5a04113          SUB      r1,r0,#0x9300
000268  3941              SUBS     r1,r1,#0x41
00026a  d005              BEQ      |L1.632|
00026c  4862              LDR      r0,|L1.1016|
00026e  8880              LDRH     r0,[r0,#4]  ; lcddev
000270  f5a041d0          SUB      r1,r0,#0x6800
000274  3904              SUBS     r1,#4
000276  d103              BNE      |L1.640|
                  |L1.632|
000278  2028              MOVS     r0,#0x28
00027a  f7fffffe          BL       LCD_WR_REG
00027e  e003              B        |L1.648|
                  |L1.640|
;;;164    	else LCD_WriteReg(R7,0x0);//关闭显示 
000280  2100              MOVS     r1,#0
000282  2007              MOVS     r0,#7
000284  f7fffffe          BL       LCD_WriteReg
                  |L1.648|
;;;165    }   
000288  bd00              POP      {pc}
;;;166    //设置光标位置
                          ENDP

                  LCD_Scan_Dir PROC
;;;199    //9320/9325/9328/4531/4535/1505/b505/8989/5408/9341等IC已经实际测试	   	   
;;;200    void LCD_Scan_Dir(u8 dir)
00028a  b570              PUSH     {r4-r6,lr}
;;;201    {
00028c  4603              MOV      r3,r0
;;;202    	u16 regval=0;
00028e  2400              MOVS     r4,#0
;;;203    	u8 dirreg=0;
000290  2500              MOVS     r5,#0
;;;204    	u16 temp;  
;;;205    	if(lcddev.dir==1&&lcddev.id!=0X6804)//横屏时，对6804不改变扫描方向！
000292  4859              LDR      r0,|L1.1016|
000294  7980              LDRB     r0,[r0,#6]  ; lcddev
000296  2801              CMP      r0,#1
000298  d11e              BNE      |L1.728|
00029a  4857              LDR      r0,|L1.1016|
00029c  8880              LDRH     r0,[r0,#4]  ; lcddev
00029e  f5a041d0          SUB      r1,r0,#0x6800
0002a2  3904              SUBS     r1,#4
0002a4  d018              BEQ      |L1.728|
;;;206    	{			   
;;;207    		switch(dir)//方向转换
0002a6  2b08              CMP      r3,#8
0002a8  d215              BCS      |L1.726|
0002aa  e8dff003          TBB      [pc,r3]
0002ae  0406              DCB      0x04,0x06
0002b0  080a0c0e          DCB      0x08,0x0a,0x0c,0x0e
0002b4  1012              DCB      0x10,0x12
;;;208    		{
;;;209    			case 0:dir=6;break;
0002b6  2306              MOVS     r3,#6
0002b8  e00d              B        |L1.726|
;;;210    			case 1:dir=7;break;
0002ba  2307              MOVS     r3,#7
0002bc  e00b              B        |L1.726|
;;;211    			case 2:dir=4;break;
0002be  2304              MOVS     r3,#4
0002c0  e009              B        |L1.726|
;;;212    			case 3:dir=5;break;
0002c2  2305              MOVS     r3,#5
0002c4  e007              B        |L1.726|
;;;213    			case 4:dir=1;break;
0002c6  2301              MOVS     r3,#1
0002c8  e005              B        |L1.726|
;;;214    			case 5:dir=0;break;
0002ca  2300              MOVS     r3,#0
0002cc  e003              B        |L1.726|
;;;215    			case 6:dir=3;break;
0002ce  2303              MOVS     r3,#3
0002d0  e001              B        |L1.726|
;;;216    			case 7:dir=2;break;	     
0002d2  2302              MOVS     r3,#2
0002d4  bf00              NOP      
                  |L1.726|
0002d6  bf00              NOP                            ;209
                  |L1.728|
;;;217    		}
;;;218    	}
;;;219    	if(lcddev.id==0x9341||lcddev.id==0X6804)//9341/6804,很特殊
0002d8  4847              LDR      r0,|L1.1016|
0002da  8880              LDRH     r0,[r0,#4]  ; lcddev
0002dc  f5a04113          SUB      r1,r0,#0x9300
0002e0  3941              SUBS     r1,r1,#0x41
0002e2  d005              BEQ      |L1.752|
0002e4  4844              LDR      r0,|L1.1016|
0002e6  8880              LDRH     r0,[r0,#4]  ; lcddev
0002e8  f5a041d0          SUB      r1,r0,#0x6800
0002ec  3904              SUBS     r1,#4
0002ee  d17d              BNE      |L1.1004|
                  |L1.752|
;;;220    	{
;;;221    		switch(dir)
0002f0  2b08              CMP      r3,#8
0002f2  d21c              BCS      |L1.814|
0002f4  e8dff003          TBB      [pc,r3]
0002f8  0406090c          DCB      0x04,0x06,0x09,0x0c
0002fc  0f121518          DCB      0x0f,0x12,0x15,0x18
;;;222    		{
;;;223    			case L2R_U2D://从左到右,从上到下
;;;224    				regval|=(0<<7)|(0<<6)|(0<<5); 
000300  bf00              NOP      
;;;225    				break;
000302  e014              B        |L1.814|
;;;226    			case L2R_D2U://从左到右,从下到上
;;;227    				regval|=(1<<7)|(0<<6)|(0<<5); 
000304  f0440480          ORR      r4,r4,#0x80
;;;228    				break;
000308  e011              B        |L1.814|
;;;229    			case R2L_U2D://从右到左,从上到下
;;;230    				regval|=(0<<7)|(1<<6)|(0<<5); 
00030a  f0440440          ORR      r4,r4,#0x40
;;;231    				break;
00030e  e00e              B        |L1.814|
;;;232    			case R2L_D2U://从右到左,从下到上
;;;233    				regval|=(1<<7)|(1<<6)|(0<<5); 
000310  f04404c0          ORR      r4,r4,#0xc0
;;;234    				break;	 
000314  e00b              B        |L1.814|
;;;235    			case U2D_L2R://从上到下,从左到右
;;;236    				regval|=(0<<7)|(0<<6)|(1<<5); 
000316  f0440420          ORR      r4,r4,#0x20
;;;237    				break;
00031a  e008              B        |L1.814|
;;;238    			case U2D_R2L://从上到下,从右到左
;;;239    				regval|=(0<<7)|(1<<6)|(1<<5); 
00031c  f0440460          ORR      r4,r4,#0x60
;;;240    				break;
000320  e005              B        |L1.814|
;;;241    			case D2U_L2R://从下到上,从左到右
;;;242    				regval|=(1<<7)|(0<<6)|(1<<5); 
000322  f04404a0          ORR      r4,r4,#0xa0
;;;243    				break;
000326  e002              B        |L1.814|
;;;244    			case D2U_R2L://从下到上,从右到左
;;;245    				regval|=(1<<7)|(1<<6)|(1<<5); 
000328  f04404e0          ORR      r4,r4,#0xe0
;;;246    				break;	 
00032c  bf00              NOP      
                  |L1.814|
00032e  bf00              NOP                            ;225
;;;247    		}
;;;248    		dirreg=0X36;
000330  2536              MOVS     r5,#0x36
;;;249     		regval|=0X08;//BGR   
000332  f0440408          ORR      r4,r4,#8
;;;250    		if(lcddev.id==0X6804)regval|=0x02;//6804的BIT6和9341的反了	   
000336  4830              LDR      r0,|L1.1016|
000338  8880              LDRH     r0,[r0,#4]  ; lcddev
00033a  f5a041d0          SUB      r1,r0,#0x6800
00033e  3904              SUBS     r1,#4
000340  d101              BNE      |L1.838|
000342  f0440402          ORR      r4,r4,#2
                  |L1.838|
;;;251    		LCD_WriteReg(dirreg,regval);
000346  4621              MOV      r1,r4
000348  4628              MOV      r0,r5
00034a  f7fffffe          BL       LCD_WriteReg
;;;252     		if((regval&0X20)||lcddev.dir==1)
00034e  f0140f20          TST      r4,#0x20
000352  d103              BNE      |L1.860|
000354  4828              LDR      r0,|L1.1016|
000356  7980              LDRB     r0,[r0,#6]  ; lcddev
000358  2801              CMP      r0,#1
00035a  d10d              BNE      |L1.888|
                  |L1.860|
;;;253    		{
;;;254    			if(lcddev.width<lcddev.height)//交换X,Y
00035c  4826              LDR      r0,|L1.1016|
00035e  8800              LDRH     r0,[r0,#0]  ; lcddev
000360  4925              LDR      r1,|L1.1016|
000362  8849              LDRH     r1,[r1,#2]  ; lcddev
000364  4288              CMP      r0,r1
000366  da14              BGE      |L1.914|
;;;255    			{
;;;256    				temp=lcddev.width;
000368  4823              LDR      r0,|L1.1016|
00036a  8806              LDRH     r6,[r0,#0]  ; lcddev
;;;257    				lcddev.width=lcddev.height;
00036c  8840              LDRH     r0,[r0,#2]  ; lcddev
00036e  4922              LDR      r1,|L1.1016|
000370  8008              STRH     r0,[r1,#0]
;;;258    				lcddev.height=temp;
000372  4608              MOV      r0,r1
000374  8046              STRH     r6,[r0,#2]
000376  e00c              B        |L1.914|
                  |L1.888|
;;;259     			}
;;;260    		}else  
;;;261    		{
;;;262    			if(lcddev.width>lcddev.height)//交换X,Y
000378  481f              LDR      r0,|L1.1016|
00037a  8800              LDRH     r0,[r0,#0]  ; lcddev
00037c  491e              LDR      r1,|L1.1016|
00037e  8849              LDRH     r1,[r1,#2]  ; lcddev
000380  4288              CMP      r0,r1
000382  dd06              BLE      |L1.914|
;;;263    			{
;;;264    				temp=lcddev.width;
000384  481c              LDR      r0,|L1.1016|
000386  8806              LDRH     r6,[r0,#0]  ; lcddev
;;;265    				lcddev.width=lcddev.height;
000388  8840              LDRH     r0,[r0,#2]  ; lcddev
00038a  491b              LDR      r1,|L1.1016|
00038c  8008              STRH     r0,[r1,#0]
;;;266    				lcddev.height=temp;
00038e  4608              MOV      r0,r1
000390  8046              STRH     r6,[r0,#2]
                  |L1.914|
;;;267     			}
;;;268    		}  
;;;269    		LCD_WR_REG(lcddev.setxcmd); 
000392  4919              LDR      r1,|L1.1016|
000394  7a08              LDRB     r0,[r1,#8]  ; lcddev
000396  f7fffffe          BL       LCD_WR_REG
;;;270    		LCD_WR_DATA(0);LCD_WR_DATA(0);
00039a  2000              MOVS     r0,#0
00039c  f7fffffe          BL       LCD_WR_DATA
0003a0  2000              MOVS     r0,#0
0003a2  f7fffffe          BL       LCD_WR_DATA
;;;271    		LCD_WR_DATA((lcddev.width-1)>>8);LCD_WR_DATA((lcddev.width-1)&0XFF);
0003a6  4914              LDR      r1,|L1.1016|
0003a8  8809              LDRH     r1,[r1,#0]  ; lcddev
0003aa  1e49              SUBS     r1,r1,#1
0003ac  f3c1200f          UBFX     r0,r1,#8,#16
0003b0  f7fffffe          BL       LCD_WR_DATA
0003b4  4910              LDR      r1,|L1.1016|
0003b6  8809              LDRH     r1,[r1,#0]  ; lcddev
0003b8  1e49              SUBS     r1,r1,#1
0003ba  b2c8              UXTB     r0,r1
0003bc  f7fffffe          BL       LCD_WR_DATA
;;;272    		LCD_WR_REG(lcddev.setycmd); 
0003c0  490d              LDR      r1,|L1.1016|
0003c2  7a48              LDRB     r0,[r1,#9]  ; lcddev
0003c4  f7fffffe          BL       LCD_WR_REG
;;;273    		LCD_WR_DATA(0);LCD_WR_DATA(0);
0003c8  2000              MOVS     r0,#0
0003ca  f7fffffe          BL       LCD_WR_DATA
0003ce  2000              MOVS     r0,#0
0003d0  f7fffffe          BL       LCD_WR_DATA
;;;274    		LCD_WR_DATA((lcddev.height-1)>>8);LCD_WR_DATA((lcddev.height-1)&0XFF);  
0003d4  4908              LDR      r1,|L1.1016|
0003d6  8849              LDRH     r1,[r1,#2]  ; lcddev
0003d8  1e49              SUBS     r1,r1,#1
0003da  f3c1200f          UBFX     r0,r1,#8,#16
0003de  f7fffffe          BL       LCD_WR_DATA
0003e2  4905              LDR      r1,|L1.1016|
0003e4  8849              LDRH     r1,[r1,#2]  ; lcddev
0003e6  1e49              SUBS     r1,r1,#1
0003e8  b2c8              UXTB     r0,r1
0003ea  e000              B        |L1.1006|
                  |L1.1004|
0003ec  e006              B        |L1.1020|
                  |L1.1006|
0003ee  f7fffffe          BL       LCD_WR_DATA
0003f2  e035              B        |L1.1120|
                  |L1.1012|
                          DCD      0x6c0007fe
                  |L1.1016|
                          DCD      lcddev
                  |L1.1020|
;;;275      	}else 
;;;276    	{
;;;277    		switch(dir)
0003fc  2b08              CMP      r3,#8
0003fe  d21c              BCS      |L1.1082|
000400  e8dff003          TBB      [pc,r3]
000404  04070a0d          DCB      0x04,0x07,0x0a,0x0d
000408  0f121518          DCB      0x0f,0x12,0x15,0x18
;;;278    		{
;;;279    			case L2R_U2D://从左到右,从上到下
;;;280    				regval|=(1<<5)|(1<<4)|(0<<3); 
00040c  f0440430          ORR      r4,r4,#0x30
;;;281    				break;
000410  e013              B        |L1.1082|
;;;282    			case L2R_D2U://从左到右,从下到上
;;;283    				regval|=(0<<5)|(1<<4)|(0<<3); 
000412  f0440410          ORR      r4,r4,#0x10
;;;284    				break;
000416  e010              B        |L1.1082|
;;;285    			case R2L_U2D://从右到左,从上到下
;;;286    				regval|=(1<<5)|(0<<4)|(0<<3);
000418  f0440420          ORR      r4,r4,#0x20
;;;287    				break;
00041c  e00d              B        |L1.1082|
;;;288    			case R2L_D2U://从右到左,从下到上
;;;289    				regval|=(0<<5)|(0<<4)|(0<<3); 
00041e  bf00              NOP      
;;;290    				break;	 
000420  e00b              B        |L1.1082|
;;;291    			case U2D_L2R://从上到下,从左到右
;;;292    				regval|=(1<<5)|(1<<4)|(1<<3); 
000422  f0440438          ORR      r4,r4,#0x38
;;;293    				break;
000426  e008              B        |L1.1082|
;;;294    			case U2D_R2L://从上到下,从右到左
;;;295    				regval|=(1<<5)|(0<<4)|(1<<3); 
000428  f0440428          ORR      r4,r4,#0x28
;;;296    				break;
00042c  e005              B        |L1.1082|
;;;297    			case D2U_L2R://从下到上,从左到右
;;;298    				regval|=(0<<5)|(1<<4)|(1<<3); 
00042e  f0440418          ORR      r4,r4,#0x18
;;;299    				break;
000432  e002              B        |L1.1082|
;;;300    			case D2U_R2L://从下到上,从右到左
;;;301    				regval|=(0<<5)|(0<<4)|(1<<3); 
000434  f0440408          ORR      r4,r4,#8
;;;302    				break;	 
000438  bf00              NOP      
                  |L1.1082|
00043a  bf00              NOP                            ;281
;;;303    		}
;;;304    		if(lcddev.id==0x8989)//8989 IC
00043c  48ff              LDR      r0,|L1.2108|
00043e  8880              LDRH     r0,[r0,#4]  ; lcddev
000440  f5a04109          SUB      r1,r0,#0x8900
000444  3989              SUBS     r1,r1,#0x89
000446  d104              BNE      |L1.1106|
;;;305    		{
;;;306    			dirreg=0X11;
000448  2511              MOVS     r5,#0x11
;;;307    			regval|=0X6040;	//65K   
00044a  f2460040          MOV      r0,#0x6040
00044e  4304              ORRS     r4,r4,r0
000450  e002              B        |L1.1112|
                  |L1.1106|
;;;308    	 	}else//其他驱动IC		  
;;;309    		{
;;;310    			dirreg=0X03;
000452  2503              MOVS     r5,#3
;;;311    			regval|=1<<12;  
000454  f4445480          ORR      r4,r4,#0x1000
                  |L1.1112|
;;;312    		}
;;;313    		LCD_WriteReg(dirreg,regval);
000458  4621              MOV      r1,r4
00045a  4628              MOV      r0,r5
00045c  f7fffffe          BL       LCD_WriteReg
                  |L1.1120|
;;;314    	}
;;;315    }   
000460  bd70              POP      {r4-r6,pc}
;;;316    //画点
                          ENDP

                  LCD_DrawPoint PROC
;;;318    //POINT_COLOR:此点的颜色
;;;319    void LCD_DrawPoint(u16 x,u16 y)
000462  b530              PUSH     {r4,r5,lr}
;;;320    {
000464  4604              MOV      r4,r0
000466  460d              MOV      r5,r1
;;;321    	LCD_SetCursor(x,y);		//设置光标位置 
000468  4629              MOV      r1,r5
00046a  4620              MOV      r0,r4
00046c  f7fffffe          BL       LCD_SetCursor
;;;322    	LCD_WriteRAM_Prepare();	//开始写入GRAM
000470  f7fffffe          BL       LCD_WriteRAM_Prepare
;;;323    	LCD->LCD_RAM=POINT_COLOR; 
000474  48f2              LDR      r0,|L1.2112|
000476  8800              LDRH     r0,[r0,#0]  ; POINT_COLOR
000478  49f2              LDR      r1,|L1.2116|
00047a  8008              STRH     r0,[r1,#0]
;;;324    }
00047c  bd30              POP      {r4,r5,pc}
;;;325    //快速画点
                          ENDP

                  LCD_Fast_DrawPoint PROC
;;;327    //color:颜色
;;;328    void LCD_Fast_DrawPoint(u16 x,u16 y,u16 color)
00047e  b530              PUSH     {r4,r5,lr}
;;;329    {	   
000480  4603              MOV      r3,r0
000482  460c              MOV      r4,r1
000484  4615              MOV      r5,r2
;;;330    	if(lcddev.id==0X9341)
000486  48ed              LDR      r0,|L1.2108|
000488  8880              LDRH     r0,[r0,#4]  ; lcddev
00048a  f5a04113          SUB      r1,r0,#0x9300
00048e  3941              SUBS     r1,r1,#0x41
000490  d114              BNE      |L1.1212|
;;;331    	{
;;;332    		LCD_WR_REG(lcddev.setxcmd); 
000492  49ea              LDR      r1,|L1.2108|
000494  7a08              LDRB     r0,[r1,#8]  ; lcddev
000496  f7fffffe          BL       LCD_WR_REG
;;;333    		LCD_WR_DATA(x>>8); 
00049a  1218              ASRS     r0,r3,#8
00049c  f7fffffe          BL       LCD_WR_DATA
;;;334    		LCD_WR_DATA(x&0XFF);	 
0004a0  b2d8              UXTB     r0,r3
0004a2  f7fffffe          BL       LCD_WR_DATA
;;;335    		LCD_WR_REG(lcddev.setycmd); 
0004a6  49e5              LDR      r1,|L1.2108|
0004a8  7a48              LDRB     r0,[r1,#9]  ; lcddev
0004aa  f7fffffe          BL       LCD_WR_REG
;;;336    		LCD_WR_DATA(y>>8); 
0004ae  1220              ASRS     r0,r4,#8
0004b0  f7fffffe          BL       LCD_WR_DATA
;;;337    		LCD_WR_DATA(y&0XFF);
0004b4  b2e0              UXTB     r0,r4
0004b6  f7fffffe          BL       LCD_WR_DATA
0004ba  e036              B        |L1.1322|
                  |L1.1212|
;;;338    	}else if(lcddev.id==0X6804)
0004bc  48df              LDR      r0,|L1.2108|
0004be  8880              LDRH     r0,[r0,#4]  ; lcddev
0004c0  f5a041d0          SUB      r1,r0,#0x6800
0004c4  3904              SUBS     r1,#4
0004c6  d11d              BNE      |L1.1284|
;;;339    	{		    
;;;340    		if(lcddev.dir==1)x=lcddev.width-1-x;//横屏时处理
0004c8  48dc              LDR      r0,|L1.2108|
0004ca  7980              LDRB     r0,[r0,#6]  ; lcddev
0004cc  2801              CMP      r0,#1
0004ce  d104              BNE      |L1.1242|
0004d0  48da              LDR      r0,|L1.2108|
0004d2  8800              LDRH     r0,[r0,#0]  ; lcddev
0004d4  1e40              SUBS     r0,r0,#1
0004d6  1ac0              SUBS     r0,r0,r3
0004d8  b283              UXTH     r3,r0
                  |L1.1242|
;;;341    		LCD_WR_REG(lcddev.setxcmd); 
0004da  49d8              LDR      r1,|L1.2108|
0004dc  7a08              LDRB     r0,[r1,#8]  ; lcddev
0004de  f7fffffe          BL       LCD_WR_REG
;;;342    		LCD_WR_DATA(x>>8); 
0004e2  1218              ASRS     r0,r3,#8
0004e4  f7fffffe          BL       LCD_WR_DATA
;;;343    		LCD_WR_DATA(x&0XFF);	 
0004e8  b2d8              UXTB     r0,r3
0004ea  f7fffffe          BL       LCD_WR_DATA
;;;344    		LCD_WR_REG(lcddev.setycmd); 
0004ee  49d3              LDR      r1,|L1.2108|
0004f0  7a48              LDRB     r0,[r1,#9]  ; lcddev
0004f2  f7fffffe          BL       LCD_WR_REG
;;;345    		LCD_WR_DATA(y>>8); 
0004f6  1220              ASRS     r0,r4,#8
0004f8  f7fffffe          BL       LCD_WR_DATA
;;;346    		LCD_WR_DATA(y&0XFF);
0004fc  b2e0              UXTB     r0,r4
0004fe  f7fffffe          BL       LCD_WR_DATA
000502  e012              B        |L1.1322|
                  |L1.1284|
;;;347    	}else
;;;348    	{
;;;349     		if(lcddev.dir==1)x=lcddev.width-1-x;//横屏其实就是调转x,y坐标
000504  48cd              LDR      r0,|L1.2108|
000506  7980              LDRB     r0,[r0,#6]  ; lcddev
000508  2801              CMP      r0,#1
00050a  d104              BNE      |L1.1302|
00050c  48cb              LDR      r0,|L1.2108|
00050e  8800              LDRH     r0,[r0,#0]  ; lcddev
000510  1e40              SUBS     r0,r0,#1
000512  1ac0              SUBS     r0,r0,r3
000514  b283              UXTH     r3,r0
                  |L1.1302|
;;;350    		LCD_WriteReg(lcddev.setxcmd,x);
000516  49c9              LDR      r1,|L1.2108|
000518  7a08              LDRB     r0,[r1,#8]  ; lcddev
00051a  4619              MOV      r1,r3
00051c  f7fffffe          BL       LCD_WriteReg
;;;351    		LCD_WriteReg(lcddev.setycmd,y);
000520  49c6              LDR      r1,|L1.2108|
000522  7a48              LDRB     r0,[r1,#9]  ; lcddev
000524  4621              MOV      r1,r4
000526  f7fffffe          BL       LCD_WriteReg
                  |L1.1322|
;;;352    	}			 
;;;353    	LCD->LCD_REG=lcddev.wramcmd; 
00052a  48c4              LDR      r0,|L1.2108|
00052c  79c0              LDRB     r0,[r0,#7]  ; lcddev
00052e  49c5              LDR      r1,|L1.2116|
000530  1e89              SUBS     r1,r1,#2
000532  8008              STRH     r0,[r1,#0]
;;;354    	LCD->LCD_RAM=color; 
000534  f04f40d8          MOV      r0,#0x6c000000
000538  f8a05800          STRH     r5,[r0,#0x800]
;;;355    }	 
00053c  bd30              POP      {r4,r5,pc}
;;;356    
                          ENDP

                  LCD_Display_Dir PROC
;;;359    //dir:0,竖屏；1,横屏
;;;360    void LCD_Display_Dir(u8 dir)
00053e  b510              PUSH     {r4,lr}
;;;361    {
000540  4604              MOV      r4,r0
;;;362    	if(dir==0)			//竖屏
000542  2c00              CMP      r4,#0
000544  d13d              BNE      |L1.1474|
;;;363    	{
;;;364    		lcddev.dir=0;	//竖屏
000546  49bd              LDR      r1,|L1.2108|
000548  7188              STRB     r0,[r1,#6]
;;;365    		lcddev.width=240;
00054a  20f0              MOVS     r0,#0xf0
00054c  8008              STRH     r0,[r1,#0]
;;;366    		lcddev.height=320;
00054e  f44f70a0          MOV      r0,#0x140
000552  8048              STRH     r0,[r1,#2]
;;;367    		if(lcddev.id==0X9341||lcddev.id==0X6804)
000554  4608              MOV      r0,r1
000556  8880              LDRH     r0,[r0,#4]  ; lcddev
000558  f5a04113          SUB      r1,r0,#0x9300
00055c  3941              SUBS     r1,r1,#0x41
00055e  d005              BEQ      |L1.1388|
000560  48b6              LDR      r0,|L1.2108|
000562  8880              LDRH     r0,[r0,#4]  ; lcddev
000564  f5a041d0          SUB      r1,r0,#0x6800
000568  3904              SUBS     r1,#4
00056a  d114              BNE      |L1.1430|
                  |L1.1388|
;;;368    		{
;;;369    			lcddev.wramcmd=0X2C;
00056c  202c              MOVS     r0,#0x2c
00056e  49b3              LDR      r1,|L1.2108|
000570  71c8              STRB     r0,[r1,#7]
;;;370    	 		lcddev.setxcmd=0X2A;
000572  202a              MOVS     r0,#0x2a
000574  7208              STRB     r0,[r1,#8]
;;;371    			lcddev.setycmd=0X2B;  	 
000576  202b              MOVS     r0,#0x2b
000578  7248              STRB     r0,[r1,#9]
;;;372    			if(lcddev.id==0X6804)
00057a  4608              MOV      r0,r1
00057c  8880              LDRH     r0,[r0,#4]  ; lcddev
00057e  f5a041d0          SUB      r1,r0,#0x6800
000582  3904              SUBS     r1,#4
000584  d15c              BNE      |L1.1600|
;;;373    			{
;;;374    				lcddev.width=320;
000586  f44f70a0          MOV      r0,#0x140
00058a  49ac              LDR      r1,|L1.2108|
00058c  8008              STRH     r0,[r1,#0]
;;;375    				lcddev.height=480;
00058e  f44f70f0          MOV      r0,#0x1e0
000592  8048              STRH     r0,[r1,#2]
000594  e054              B        |L1.1600|
                  |L1.1430|
;;;376    			}
;;;377    		}else if(lcddev.id==0X8989)
000596  48a9              LDR      r0,|L1.2108|
000598  8880              LDRH     r0,[r0,#4]  ; lcddev
00059a  f5a04109          SUB      r1,r0,#0x8900
00059e  3989              SUBS     r1,r1,#0x89
0005a0  d107              BNE      |L1.1458|
;;;378    		{
;;;379    			lcddev.wramcmd=R34;
0005a2  2022              MOVS     r0,#0x22
0005a4  49a5              LDR      r1,|L1.2108|
0005a6  71c8              STRB     r0,[r1,#7]
;;;380    	 		lcddev.setxcmd=0X4E;
0005a8  204e              MOVS     r0,#0x4e
0005aa  7208              STRB     r0,[r1,#8]
;;;381    			lcddev.setycmd=0X4F;  
0005ac  204f              MOVS     r0,#0x4f
0005ae  7248              STRB     r0,[r1,#9]
0005b0  e046              B        |L1.1600|
                  |L1.1458|
;;;382    		}else
;;;383    		{
;;;384    			lcddev.wramcmd=R34;
0005b2  2022              MOVS     r0,#0x22
0005b4  49a1              LDR      r1,|L1.2108|
0005b6  71c8              STRB     r0,[r1,#7]
;;;385    	 		lcddev.setxcmd=R32;
0005b8  2020              MOVS     r0,#0x20
0005ba  7208              STRB     r0,[r1,#8]
;;;386    			lcddev.setycmd=R33;  
0005bc  2021              MOVS     r0,#0x21
0005be  7248              STRB     r0,[r1,#9]
0005c0  e03e              B        |L1.1600|
                  |L1.1474|
;;;387    		}
;;;388    	}else 				//横屏
;;;389    	{	  				
;;;390    		lcddev.dir=1;	//横屏
0005c2  2001              MOVS     r0,#1
0005c4  499d              LDR      r1,|L1.2108|
0005c6  7188              STRB     r0,[r1,#6]
;;;391    		lcddev.width=320;
0005c8  f44f70a0          MOV      r0,#0x140
0005cc  8008              STRH     r0,[r1,#0]
;;;392    		lcddev.height=240;
0005ce  20f0              MOVS     r0,#0xf0
0005d0  8048              STRH     r0,[r1,#2]
;;;393    		if(lcddev.id==0X9341)
0005d2  4608              MOV      r0,r1
0005d4  8880              LDRH     r0,[r0,#4]  ; lcddev
0005d6  f5a04113          SUB      r1,r0,#0x9300
0005da  3941              SUBS     r1,r1,#0x41
0005dc  d107              BNE      |L1.1518|
;;;394    		{
;;;395    			lcddev.wramcmd=0X2C;
0005de  202c              MOVS     r0,#0x2c
0005e0  4996              LDR      r1,|L1.2108|
0005e2  71c8              STRB     r0,[r1,#7]
;;;396    	 		lcddev.setxcmd=0X2A;
0005e4  202a              MOVS     r0,#0x2a
0005e6  7208              STRB     r0,[r1,#8]
;;;397    			lcddev.setycmd=0X2B;  	 
0005e8  202b              MOVS     r0,#0x2b
0005ea  7248              STRB     r0,[r1,#9]
0005ec  e028              B        |L1.1600|
                  |L1.1518|
;;;398    		}else if(lcddev.id==0X6804)	 
0005ee  4893              LDR      r0,|L1.2108|
0005f0  8880              LDRH     r0,[r0,#4]  ; lcddev
0005f2  f5a041d0          SUB      r1,r0,#0x6800
0005f6  3904              SUBS     r1,#4
0005f8  d10d              BNE      |L1.1558|
;;;399    		{
;;;400     			lcddev.wramcmd=0X2C;
0005fa  202c              MOVS     r0,#0x2c
0005fc  498f              LDR      r1,|L1.2108|
0005fe  71c8              STRB     r0,[r1,#7]
;;;401    	 		lcddev.setxcmd=0X2B;
000600  202b              MOVS     r0,#0x2b
000602  7208              STRB     r0,[r1,#8]
;;;402    			lcddev.setycmd=0X2A;  	 
000604  202a              MOVS     r0,#0x2a
000606  7248              STRB     r0,[r1,#9]
;;;403    			lcddev.width=480;
000608  f44f70f0          MOV      r0,#0x1e0
00060c  8008              STRH     r0,[r1,#0]
;;;404    			lcddev.height=320; 
00060e  f44f70a0          MOV      r0,#0x140
000612  8048              STRH     r0,[r1,#2]
000614  e014              B        |L1.1600|
                  |L1.1558|
;;;405    		}else if(lcddev.id==0X8989)
000616  4889              LDR      r0,|L1.2108|
000618  8880              LDRH     r0,[r0,#4]  ; lcddev
00061a  f5a04109          SUB      r1,r0,#0x8900
00061e  3989              SUBS     r1,r1,#0x89
000620  d107              BNE      |L1.1586|
;;;406    		{
;;;407    			lcddev.wramcmd=R34;
000622  2022              MOVS     r0,#0x22
000624  4985              LDR      r1,|L1.2108|
000626  71c8              STRB     r0,[r1,#7]
;;;408    	 		lcddev.setxcmd=0X4F;
000628  204f              MOVS     r0,#0x4f
00062a  7208              STRB     r0,[r1,#8]
;;;409    			lcddev.setycmd=0X4E;   
00062c  204e              MOVS     r0,#0x4e
00062e  7248              STRB     r0,[r1,#9]
000630  e006              B        |L1.1600|
                  |L1.1586|
;;;410    		}else
;;;411    		{
;;;412    			lcddev.wramcmd=R34;
000632  2022              MOVS     r0,#0x22
000634  4981              LDR      r1,|L1.2108|
000636  71c8              STRB     r0,[r1,#7]
;;;413    	 		lcddev.setxcmd=R33;
000638  2021              MOVS     r0,#0x21
00063a  7208              STRB     r0,[r1,#8]
;;;414    			lcddev.setycmd=R32;  
00063c  2020              MOVS     r0,#0x20
00063e  7248              STRB     r0,[r1,#9]
                  |L1.1600|
;;;415    		}
;;;416    	} 
;;;417    	LCD_Scan_Dir(DFT_SCAN_DIR);	//默认扫描方向
000640  2000              MOVS     r0,#0
000642  f7fffffe          BL       LCD_Scan_Dir
;;;418    }	 
000646  bd10              POP      {r4,pc}
;;;419    //初始化lcd
                          ENDP

                  LCD_Clear PROC
;;;1295   //color:要清屏的填充色
;;;1296   void LCD_Clear(u16 color)
000648  b570              PUSH     {r4-r6,lr}
;;;1297   {
00064a  4604              MOV      r4,r0
;;;1298   	u32 index=0;      
00064c  2600              MOVS     r6,#0
;;;1299   	u32 totalpoint=lcddev.width;
00064e  487b              LDR      r0,|L1.2108|
000650  8805              LDRH     r5,[r0,#0]  ; lcddev
;;;1300   	totalpoint*=lcddev.height; 			//得到总点数
000652  8840              LDRH     r0,[r0,#2]  ; lcddev
000654  4345              MULS     r5,r0,r5
;;;1301   	if((lcddev.id==0X6804)&&(lcddev.dir==1))//6804横屏的时候特殊处理  
000656  4879              LDR      r0,|L1.2108|
000658  8880              LDRH     r0,[r0,#4]  ; lcddev
00065a  f5a041d0          SUB      r1,r0,#0x6800
00065e  3904              SUBS     r1,#4
000660  d116              BNE      |L1.1680|
000662  4876              LDR      r0,|L1.2108|
000664  7980              LDRB     r0,[r0,#6]  ; lcddev
000666  2801              CMP      r0,#1
000668  d112              BNE      |L1.1680|
;;;1302   	{						    
;;;1303    		lcddev.dir=0;	 
00066a  2000              MOVS     r0,#0
00066c  4973              LDR      r1,|L1.2108|
00066e  7188              STRB     r0,[r1,#6]
;;;1304    		lcddev.setxcmd=0X2A;
000670  202a              MOVS     r0,#0x2a
000672  7208              STRB     r0,[r1,#8]
;;;1305   		lcddev.setycmd=0X2B;  	 			
000674  202b              MOVS     r0,#0x2b
000676  7248              STRB     r0,[r1,#9]
;;;1306   		LCD_SetCursor(0x00,0x0000);		//设置光标位置  
000678  2100              MOVS     r1,#0
00067a  4608              MOV      r0,r1
00067c  f7fffffe          BL       LCD_SetCursor
;;;1307    		lcddev.dir=1;	 
000680  2001              MOVS     r0,#1
000682  496e              LDR      r1,|L1.2108|
000684  7188              STRB     r0,[r1,#6]
;;;1308     		lcddev.setxcmd=0X2B;
000686  202b              MOVS     r0,#0x2b
000688  7208              STRB     r0,[r1,#8]
;;;1309   		lcddev.setycmd=0X2A;  	 
00068a  202a              MOVS     r0,#0x2a
00068c  7248              STRB     r0,[r1,#9]
00068e  e003              B        |L1.1688|
                  |L1.1680|
;;;1310    	}else LCD_SetCursor(0x00,0x0000);	//设置光标位置 
000690  2100              MOVS     r1,#0
000692  4608              MOV      r0,r1
000694  f7fffffe          BL       LCD_SetCursor
                  |L1.1688|
;;;1311   	LCD_WriteRAM_Prepare();     		//开始写入GRAM	 	  
000698  f7fffffe          BL       LCD_WriteRAM_Prepare
;;;1312   	for(index=0;index<totalpoint;index++)
00069c  2600              MOVS     r6,#0
00069e  e002              B        |L1.1702|
                  |L1.1696|
;;;1313   	{
;;;1314   		LCD->LCD_RAM=color;	   
0006a0  4868              LDR      r0,|L1.2116|
0006a2  8004              STRH     r4,[r0,#0]
0006a4  1c76              ADDS     r6,r6,#1              ;1312
                  |L1.1702|
0006a6  42ae              CMP      r6,r5                 ;1312
0006a8  d3fa              BCC      |L1.1696|
;;;1315   	}
;;;1316   }  
0006aa  bd70              POP      {r4-r6,pc}
;;;1317   //在指定区域内填充单个颜色
                          ENDP

                  LCD_Init PROC
;;;421    //在其他型号的驱动芯片上没有测试! 
;;;422    void LCD_Init(void)
0006ac  b510              PUSH     {r4,lr}
;;;423    { 										  
;;;424    	RCC->AHBENR|=1<<8;     	 	//使能FSMC时钟	  
0006ae  4866              LDR      r0,|L1.2120|
0006b0  6940              LDR      r0,[r0,#0x14]
0006b2  f4407080          ORR      r0,r0,#0x100
0006b6  4964              LDR      r1,|L1.2120|
0006b8  6148              STR      r0,[r1,#0x14]
;;;425      	RCC->APB2ENR|=1<<3;     	//使能PORTB时钟
0006ba  4608              MOV      r0,r1
0006bc  6980              LDR      r0,[r0,#0x18]
0006be  f0400008          ORR      r0,r0,#8
0006c2  6188              STR      r0,[r1,#0x18]
;;;426    	RCC->APB2ENR|=1<<5;     	//使能PORTD时钟
0006c4  4608              MOV      r0,r1
0006c6  6980              LDR      r0,[r0,#0x18]
0006c8  f0400020          ORR      r0,r0,#0x20
0006cc  6188              STR      r0,[r1,#0x18]
;;;427    	RCC->APB2ENR|=1<<6;     	//使能PORTE时钟
0006ce  4608              MOV      r0,r1
0006d0  6980              LDR      r0,[r0,#0x18]
0006d2  f0400040          ORR      r0,r0,#0x40
0006d6  6188              STR      r0,[r1,#0x18]
;;;428     	RCC->APB2ENR|=1<<8;      	//使能PORTG时钟	 
0006d8  4608              MOV      r0,r1
0006da  6980              LDR      r0,[r0,#0x18]
0006dc  f4407080          ORR      r0,r0,#0x100
0006e0  6188              STR      r0,[r1,#0x18]
;;;429    	GPIOB->CRL&=0XFFFFFFF0;		//PB0 推挽输出 背光
0006e2  485a              LDR      r0,|L1.2124|
0006e4  6800              LDR      r0,[r0,#0]
0006e6  f020000f          BIC      r0,r0,#0xf
0006ea  4959              LDR      r1,|L1.2128|
0006ec  f8c10c00          STR      r0,[r1,#0xc00]
;;;430    	GPIOB->CRL|=0X00000003;	   
0006f0  4608              MOV      r0,r1
0006f2  f8d00c00          LDR      r0,[r0,#0xc00]
0006f6  f0400003          ORR      r0,r0,#3
0006fa  f8c10c00          STR      r0,[r1,#0xc00]
;;;431    	//PORTD复用推挽输出 	
;;;432    	GPIOD->CRH&=0X00FFF000;
0006fe  4855              LDR      r0,|L1.2132|
000700  6800              LDR      r0,[r0,#0]
000702  4955              LDR      r1,|L1.2136|
000704  4008              ANDS     r0,r0,r1
000706  4955              LDR      r1,|L1.2140|
000708  f8c10404          STR      r0,[r1,#0x404]
;;;433    	GPIOD->CRH|=0XBB000BBB; 
00070c  4851              LDR      r0,|L1.2132|
00070e  6800              LDR      r0,[r0,#0]
000710  4953              LDR      r1,|L1.2144|
000712  4308              ORRS     r0,r0,r1
000714  4951              LDR      r1,|L1.2140|
000716  f8c10404          STR      r0,[r1,#0x404]
;;;434    	GPIOD->CRL&=0XFF00FF00;
00071a  4608              MOV      r0,r1
00071c  f8d00400          LDR      r0,[r0,#0x400]
000720  f00020ff          AND      r0,r0,#0xff00ff00
000724  f8c10400          STR      r0,[r1,#0x400]
;;;435    	GPIOD->CRL|=0X00BB00BB;   	 
000728  4608              MOV      r0,r1
00072a  f8d00400          LDR      r0,[r0,#0x400]
00072e  f04010bb          ORR      r0,r0,#0xbb00bb
000732  f8c10400          STR      r0,[r1,#0x400]
;;;436    	//PORTE复用推挽输出 	
;;;437    	GPIOE->CRH&=0X00000000;
000736  4608              MOV      r0,r1
000738  f8d00804          LDR      r0,[r0,#0x804]
00073c  2000              MOVS     r0,#0
00073e  f8c10804          STR      r0,[r1,#0x804]
;;;438    	GPIOE->CRH|=0XBBBBBBBB; 
000742  4608              MOV      r0,r1
000744  f8d00804          LDR      r0,[r0,#0x804]
000748  f04030bb          ORR      r0,r0,#0xbbbbbbbb
00074c  f8c10804          STR      r0,[r1,#0x804]
;;;439    	GPIOE->CRL&=0X0FFFFFFF;
000750  4608              MOV      r0,r1
000752  f8d00800          LDR      r0,[r0,#0x800]
000756  f0204070          BIC      r0,r0,#0xf0000000
00075a  f8c10800          STR      r0,[r1,#0x800]
;;;440    	GPIOE->CRL|=0XB0000000;    	    	 											 
00075e  4608              MOV      r0,r1
000760  f8d00800          LDR      r0,[r0,#0x800]
000764  f0404030          ORR      r0,r0,#0xb0000000
000768  f8c10800          STR      r0,[r1,#0x800]
;;;441    	//PORTG12复用推挽输出 A0	    	 											 
;;;442    	GPIOG->CRH&=0XFFF0FFFF;
00076c  483d              LDR      r0,|L1.2148|
00076e  6840              LDR      r0,[r0,#4]
000770  f4202070          BIC      r0,r0,#0xf0000
000774  493b              LDR      r1,|L1.2148|
000776  6048              STR      r0,[r1,#4]
;;;443    	GPIOG->CRH|=0X000B0000; 
000778  4608              MOV      r0,r1
00077a  6840              LDR      r0,[r0,#4]
00077c  f4402030          ORR      r0,r0,#0xb0000
000780  6048              STR      r0,[r1,#4]
;;;444    	GPIOG->CRL&=0XFFFFFFF0;//PG0->RS
000782  4608              MOV      r0,r1
000784  6800              LDR      r0,[r0,#0]
000786  f020000f          BIC      r0,r0,#0xf
00078a  6008              STR      r0,[r1,#0]
;;;445    	GPIOG->CRL|=0X0000000B;  
00078c  4608              MOV      r0,r1
00078e  6800              LDR      r0,[r0,#0]
000790  f040000b          ORR      r0,r0,#0xb
000794  6008              STR      r0,[r1,#0]
;;;446    
;;;447    	//寄存器清零
;;;448    	//bank1有NE1~4,每一个有一个BCR+TCR，所以总共八个寄存器。
;;;449    	//这里我们使用NE4 ，也就对应BTCR[6],[7]。				    
;;;450    	FSMC_Bank1->BTCR[6]=0X00000000;
000796  2000              MOVS     r0,#0
000798  f04f4120          MOV      r1,#0xa0000000
00079c  6188              STR      r0,[r1,#0x18]
;;;451    	FSMC_Bank1->BTCR[7]=0X00000000;
00079e  61c8              STR      r0,[r1,#0x1c]
;;;452    	FSMC_Bank1E->BWTR[6]=0X00000000;
0007a0  f8c1011c          STR      r0,[r1,#0x11c]
;;;453    	//操作BCR寄存器	使用异步模式
;;;454    	FSMC_Bank1->BTCR[6]|=1<<12;		//存储器写使能
0007a4  4608              MOV      r0,r1
0007a6  6980              LDR      r0,[r0,#0x18]
0007a8  f4405080          ORR      r0,r0,#0x1000
0007ac  6188              STR      r0,[r1,#0x18]
;;;455    	FSMC_Bank1->BTCR[6]|=1<<14;		//读写使用不同的时序
0007ae  4608              MOV      r0,r1
0007b0  6980              LDR      r0,[r0,#0x18]
0007b2  f4404080          ORR      r0,r0,#0x4000
0007b6  6188              STR      r0,[r1,#0x18]
;;;456    	FSMC_Bank1->BTCR[6]|=1<<4; 		//存储器数据宽度为16bit 	    
0007b8  4608              MOV      r0,r1
0007ba  6980              LDR      r0,[r0,#0x18]
0007bc  f0400010          ORR      r0,r0,#0x10
0007c0  6188              STR      r0,[r1,#0x18]
;;;457    	//操作BTR寄存器	
;;;458    	//读时序控制寄存器 							    
;;;459    	FSMC_Bank1->BTCR[7]|=0<<28;		//模式A 	 							  	 
0007c2  4608              MOV      r0,r1
0007c4  69c0              LDR      r0,[r0,#0x1c]
0007c6  61c8              STR      r0,[r1,#0x1c]
;;;460    	FSMC_Bank1->BTCR[7]|=1<<0; 		//地址建立时间（ADDSET）为2个HCLK 1/36M=27ns	 	 
0007c8  4608              MOV      r0,r1
0007ca  69c0              LDR      r0,[r0,#0x1c]
0007cc  f0400001          ORR      r0,r0,#1
0007d0  61c8              STR      r0,[r1,#0x1c]
;;;461    	//因为液晶驱动IC的读数据的时候，速度不能太快，尤其对1289这个IC。
;;;462    	FSMC_Bank1->BTCR[7]|=0XF<<8;  	//数据保存时间为16个HCLK	 	 
0007d2  4608              MOV      r0,r1
0007d4  69c0              LDR      r0,[r0,#0x1c]
0007d6  f4406070          ORR      r0,r0,#0xf00
0007da  61c8              STR      r0,[r1,#0x1c]
;;;463    	//写时序控制寄存器  
;;;464    	FSMC_Bank1E->BWTR[6]|=0<<28; 	//模式A 	 							    
0007dc  4608              MOV      r0,r1
0007de  f8d0011c          LDR      r0,[r0,#0x11c]
0007e2  f8c1011c          STR      r0,[r1,#0x11c]
;;;465    	FSMC_Bank1E->BWTR[6]|=0<<0;		//地址建立时间（ADDSET）为1个HCLK 
0007e6  4608              MOV      r0,r1
0007e8  f8d0011c          LDR      r0,[r0,#0x11c]
0007ec  f8c1011c          STR      r0,[r1,#0x11c]
;;;466     	//4个HCLK（HCLK=72M）因为液晶驱动IC的写信号脉宽，最少也得50ns。72M/4=24M=55ns  	 
;;;467    	FSMC_Bank1E->BWTR[6]|=3<<8; 	//数据保存时间为4个HCLK	
0007f0  4608              MOV      r0,r1
0007f2  f8d0011c          LDR      r0,[r0,#0x11c]
0007f6  f4407040          ORR      r0,r0,#0x300
0007fa  f8c1011c          STR      r0,[r1,#0x11c]
;;;468    	//使能BANK1,区域4
;;;469    	FSMC_Bank1->BTCR[6]|=1<<0;		//使能BANK1，区域4	  
0007fe  4608              MOV      r0,r1
000800  6980              LDR      r0,[r0,#0x18]
000802  f0400001          ORR      r0,r0,#1
000806  6188              STR      r0,[r1,#0x18]
;;;470    			 
;;;471     	delay_ms(50); // delay 50 ms 
000808  2032              MOVS     r0,#0x32
00080a  f7fffffe          BL       delay_ms
;;;472     	LCD_WriteReg(0x0000,0x0001);
00080e  2101              MOVS     r1,#1
000810  2000              MOVS     r0,#0
000812  f7fffffe          BL       LCD_WriteReg
;;;473    	delay_ms(50); // delay 50 ms 
000816  2032              MOVS     r0,#0x32
000818  f7fffffe          BL       delay_ms
;;;474      	lcddev.id = LCD_ReadReg(0x0000);   
00081c  2000              MOVS     r0,#0
00081e  f7fffffe          BL       LCD_ReadReg
000822  4906              LDR      r1,|L1.2108|
000824  8088              STRH     r0,[r1,#4]
;;;475      	if(lcddev.id<0XFF||lcddev.id==0XFFFF||lcddev.id==0X9300)//读到ID不正确,新增lcddev.id==0X9300判断，因为9341在未被复位的情况下会被读成9300
000826  4608              MOV      r0,r1
000828  8880              LDRH     r0,[r0,#4]  ; lcddev
00082a  28ff              CMP      r0,#0xff
00082c  db21              BLT      |L1.2162|
00082e  4608              MOV      r0,r1
000830  8880              LDRH     r0,[r0,#4]  ; lcddev
000832  f5a0417f          SUB      r1,r0,#0xff00
000836  39ff              SUBS     r1,r1,#0xff
000838  d01b              BEQ      |L1.2162|
00083a  e015              B        |L1.2152|
                  |L1.2108|
                          DCD      lcddev
                  |L1.2112|
                          DCD      POINT_COLOR
                  |L1.2116|
                          DCD      0x6c000800
                  |L1.2120|
                          DCD      0x40021000
                  |L1.2124|
                          DCD      0x40010c00
                  |L1.2128|
                          DCD      0x40010000
                  |L1.2132|
                          DCD      0x40011404
                  |L1.2136|
                          DCD      0x00fff000
                  |L1.2140|
                          DCD      0x40011000
                  |L1.2144|
                          DCD      0xbb000bbb
                  |L1.2148|
                          DCD      0x40012000
                  |L1.2152|
000868  48ff              LDR      r0,|L1.3176|
00086a  8880              LDRH     r0,[r0,#4]  ; lcddev
00086c  f5b04f13          CMP      r0,#0x9300
000870  d145              BNE      |L1.2302|
                  |L1.2162|
;;;476    	{	
;;;477     		//尝试9341 ID的读取		
;;;478    		LCD_WR_REG(0XD3);				   
000872  20d3              MOVS     r0,#0xd3
000874  f7fffffe          BL       LCD_WR_REG
;;;479    		LCD_RD_DATA(); 				//dummy read 	
000878  f7fffffe          BL       LCD_RD_DATA
;;;480     		LCD_RD_DATA();   	    	//读到0X00
00087c  f7fffffe          BL       LCD_RD_DATA
;;;481      		lcddev.id=LCD_RD_DATA();   	//读取93								   
000880  f7fffffe          BL       LCD_RD_DATA
000884  49f8              LDR      r1,|L1.3176|
000886  8088              STRH     r0,[r1,#4]
;;;482     		lcddev.id<<=8;
000888  4608              MOV      r0,r1
00088a  8880              LDRH     r0,[r0,#4]  ; lcddev
00088c  0600              LSLS     r0,r0,#24
00088e  0c00              LSRS     r0,r0,#16
000890  8088              STRH     r0,[r1,#4]
;;;483    		lcddev.id|=LCD_RD_DATA();  	//读取41 	   			   
000892  f7fffffe          BL       LCD_RD_DATA
000896  49f4              LDR      r1,|L1.3176|
000898  8889              LDRH     r1,[r1,#4]  ; lcddev
00089a  4308              ORRS     r0,r0,r1
00089c  49f2              LDR      r1,|L1.3176|
00089e  8088              STRH     r0,[r1,#4]
;;;484     		if(lcddev.id!=0X9341)		//非9341,尝试是不是6804
0008a0  4608              MOV      r0,r1
0008a2  8880              LDRH     r0,[r0,#4]  ; lcddev
0008a4  f5a04113          SUB      r1,r0,#0x9300
0008a8  3941              SUBS     r1,r1,#0x41
0008aa  d018              BEQ      |L1.2270|
;;;485    		{	
;;;486     			LCD_WR_REG(0XBF);				   
0008ac  20bf              MOVS     r0,#0xbf
0008ae  f7fffffe          BL       LCD_WR_REG
;;;487    			LCD_RD_DATA(); 			//dummy read 	 
0008b2  f7fffffe          BL       LCD_RD_DATA
;;;488    	 		LCD_RD_DATA();   	    //读回0X01			   
0008b6  f7fffffe          BL       LCD_RD_DATA
;;;489    	 		LCD_RD_DATA(); 			//读回0XD0 			  	
0008ba  f7fffffe          BL       LCD_RD_DATA
;;;490    	  		lcddev.id=LCD_RD_DATA();//这里读回0X68 
0008be  f7fffffe          BL       LCD_RD_DATA
0008c2  49e9              LDR      r1,|L1.3176|
0008c4  8088              STRH     r0,[r1,#4]
;;;491    			lcddev.id<<=8;
0008c6  4608              MOV      r0,r1
0008c8  8880              LDRH     r0,[r0,#4]  ; lcddev
0008ca  0600              LSLS     r0,r0,#24
0008cc  0c00              LSRS     r0,r0,#16
0008ce  8088              STRH     r0,[r1,#4]
;;;492    	  		lcddev.id|=LCD_RD_DATA();//这里读回0X04	   	  
0008d0  f7fffffe          BL       LCD_RD_DATA
0008d4  49e4              LDR      r1,|L1.3176|
0008d6  8889              LDRH     r1,[r1,#4]  ; lcddev
0008d8  4308              ORRS     r0,r0,r1
0008da  49e3              LDR      r1,|L1.3176|
0008dc  8088              STRH     r0,[r1,#4]
                  |L1.2270|
;;;493     		} 
;;;494    		if(lcddev.id!=0X9341&&lcddev.id!=0X6804)lcddev.id=0x9341;//新增，用于识别9341 	     
0008de  48e2              LDR      r0,|L1.3176|
0008e0  8880              LDRH     r0,[r0,#4]  ; lcddev
0008e2  f5a04113          SUB      r1,r0,#0x9300
0008e6  3941              SUBS     r1,r1,#0x41
0008e8  d009              BEQ      |L1.2302|
0008ea  48df              LDR      r0,|L1.3176|
0008ec  8880              LDRH     r0,[r0,#4]  ; lcddev
0008ee  f5a041d0          SUB      r1,r0,#0x6800
0008f2  3904              SUBS     r1,#4
0008f4  d003              BEQ      |L1.2302|
0008f6  f2493041          MOV      r0,#0x9341
0008fa  49db              LDR      r1,|L1.3176|
0008fc  8088              STRH     r0,[r1,#4]
                  |L1.2302|
;;;495    	}
;;;496     	printf(" LCD ID:%x\r\n",lcddev.id); //打印LCD ID  
0008fe  48da              LDR      r0,|L1.3176|
000900  8881              LDRH     r1,[r0,#4]  ; lcddev
000902  a0da              ADR      r0,|L1.3180|
000904  f7fffffe          BL       __2printf
;;;497    	if(lcddev.id==0X9341)	//9341初始化
000908  48d7              LDR      r0,|L1.3176|
00090a  8880              LDRH     r0,[r0,#4]  ; lcddev
00090c  f5a04113          SUB      r1,r0,#0x9300
000910  3941              SUBS     r1,r1,#0x41
000912  d17e              BNE      |L1.2578|
;;;498    	{	 
;;;499    		LCD_WR_REG(0xCF);  
000914  20cf              MOVS     r0,#0xcf
000916  f7fffffe          BL       LCD_WR_REG
;;;500    		LCD_WR_DATA(0x00); 
00091a  2000              MOVS     r0,#0
00091c  f7fffffe          BL       LCD_WR_DATA
;;;501    		LCD_WR_DATA(0xC1); 
000920  20c1              MOVS     r0,#0xc1
000922  f7fffffe          BL       LCD_WR_DATA
;;;502    		LCD_WR_DATA(0X30); 
000926  2030              MOVS     r0,#0x30
000928  f7fffffe          BL       LCD_WR_DATA
;;;503    		LCD_WR_REG(0xED);  
00092c  20ed              MOVS     r0,#0xed
00092e  f7fffffe          BL       LCD_WR_REG
;;;504    		LCD_WR_DATA(0x64); 
000932  2064              MOVS     r0,#0x64
000934  f7fffffe          BL       LCD_WR_DATA
;;;505    		LCD_WR_DATA(0x03); 
000938  2003              MOVS     r0,#3
00093a  f7fffffe          BL       LCD_WR_DATA
;;;506    		LCD_WR_DATA(0X12); 
00093e  2012              MOVS     r0,#0x12
000940  f7fffffe          BL       LCD_WR_DATA
;;;507    		LCD_WR_DATA(0X81); 
000944  2081              MOVS     r0,#0x81
000946  f7fffffe          BL       LCD_WR_DATA
;;;508    		LCD_WR_REG(0xE8);  
00094a  20e8              MOVS     r0,#0xe8
00094c  f7fffffe          BL       LCD_WR_REG
;;;509    		LCD_WR_DATA(0x85); 
000950  2085              MOVS     r0,#0x85
000952  f7fffffe          BL       LCD_WR_DATA
;;;510    		LCD_WR_DATA(0x10); 
000956  2010              MOVS     r0,#0x10
000958  f7fffffe          BL       LCD_WR_DATA
;;;511    		LCD_WR_DATA(0x7A); 
00095c  207a              MOVS     r0,#0x7a
00095e  f7fffffe          BL       LCD_WR_DATA
;;;512    		LCD_WR_REG(0xCB);  
000962  20cb              MOVS     r0,#0xcb
000964  f7fffffe          BL       LCD_WR_REG
;;;513    		LCD_WR_DATA(0x39); 
000968  2039              MOVS     r0,#0x39
00096a  f7fffffe          BL       LCD_WR_DATA
;;;514    		LCD_WR_DATA(0x2C); 
00096e  202c              MOVS     r0,#0x2c
000970  f7fffffe          BL       LCD_WR_DATA
;;;515    		LCD_WR_DATA(0x00); 
000974  2000              MOVS     r0,#0
000976  f7fffffe          BL       LCD_WR_DATA
;;;516    		LCD_WR_DATA(0x34); 
00097a  2034              MOVS     r0,#0x34
00097c  f7fffffe          BL       LCD_WR_DATA
;;;517    		LCD_WR_DATA(0x02); 
000980  2002              MOVS     r0,#2
000982  f7fffffe          BL       LCD_WR_DATA
;;;518    		LCD_WR_REG(0xF7);  
000986  20f7              MOVS     r0,#0xf7
000988  f7fffffe          BL       LCD_WR_REG
;;;519    		LCD_WR_DATA(0x20); 
00098c  2020              MOVS     r0,#0x20
00098e  f7fffffe          BL       LCD_WR_DATA
;;;520    		LCD_WR_REG(0xEA);  
000992  20ea              MOVS     r0,#0xea
000994  f7fffffe          BL       LCD_WR_REG
;;;521    		LCD_WR_DATA(0x00); 
000998  2000              MOVS     r0,#0
00099a  f7fffffe          BL       LCD_WR_DATA
;;;522    		LCD_WR_DATA(0x00); 
00099e  2000              MOVS     r0,#0
0009a0  f7fffffe          BL       LCD_WR_DATA
;;;523    		LCD_WR_REG(0xC0);    //Power control 
0009a4  20c0              MOVS     r0,#0xc0
0009a6  f7fffffe          BL       LCD_WR_REG
;;;524    		LCD_WR_DATA(0x1B);   //VRH[5:0] 
0009aa  201b              MOVS     r0,#0x1b
0009ac  f7fffffe          BL       LCD_WR_DATA
;;;525    		LCD_WR_REG(0xC1);    //Power control 
0009b0  20c1              MOVS     r0,#0xc1
0009b2  f7fffffe          BL       LCD_WR_REG
;;;526    		LCD_WR_DATA(0x01);   //SAP[2:0];BT[3:0] 
0009b6  2001              MOVS     r0,#1
0009b8  f7fffffe          BL       LCD_WR_DATA
;;;527    		LCD_WR_REG(0xC5);    //VCM control 
0009bc  20c5              MOVS     r0,#0xc5
0009be  f7fffffe          BL       LCD_WR_REG
;;;528    		LCD_WR_DATA(0x30); 	 //3F
0009c2  2030              MOVS     r0,#0x30
0009c4  f7fffffe          BL       LCD_WR_DATA
;;;529    		LCD_WR_DATA(0x30); 	 //3C
0009c8  2030              MOVS     r0,#0x30
0009ca  f7fffffe          BL       LCD_WR_DATA
;;;530    		LCD_WR_REG(0xC7);    //VCM control2 
0009ce  20c7              MOVS     r0,#0xc7
0009d0  f7fffffe          BL       LCD_WR_REG
;;;531    		LCD_WR_DATA(0XB7); 
0009d4  20b7              MOVS     r0,#0xb7
0009d6  f7fffffe          BL       LCD_WR_DATA
;;;532    		LCD_WR_REG(0x36);    // Memory Access Control 
0009da  2036              MOVS     r0,#0x36
0009dc  f7fffffe          BL       LCD_WR_REG
;;;533    		LCD_WR_DATA(0x48); 
0009e0  2048              MOVS     r0,#0x48
0009e2  f7fffffe          BL       LCD_WR_DATA
;;;534    		LCD_WR_REG(0x3A);   
0009e6  203a              MOVS     r0,#0x3a
0009e8  f7fffffe          BL       LCD_WR_REG
;;;535    		LCD_WR_DATA(0x55); 
0009ec  2055              MOVS     r0,#0x55
0009ee  f7fffffe          BL       LCD_WR_DATA
;;;536    		LCD_WR_REG(0xB1);   
0009f2  20b1              MOVS     r0,#0xb1
0009f4  f7fffffe          BL       LCD_WR_REG
;;;537    		LCD_WR_DATA(0x00);   
0009f8  2000              MOVS     r0,#0
0009fa  f7fffffe          BL       LCD_WR_DATA
;;;538    		LCD_WR_DATA(0x1A); 
0009fe  201a              MOVS     r0,#0x1a
000a00  f7fffffe          BL       LCD_WR_DATA
;;;539    		LCD_WR_REG(0xB6);    // Display Function Control 
000a04  20b6              MOVS     r0,#0xb6
000a06  f7fffffe          BL       LCD_WR_REG
;;;540    		LCD_WR_DATA(0x0A); 
000a0a  200a              MOVS     r0,#0xa
000a0c  f7fffffe          BL       LCD_WR_DATA
;;;541    		LCD_WR_DATA(0xA2); 
000a10  e000              B        |L1.2580|
                  |L1.2578|
000a12  e097              B        |L1.2884|
                  |L1.2580|
000a14  20a2              MOVS     r0,#0xa2
000a16  f7fffffe          BL       LCD_WR_DATA
;;;542    		LCD_WR_REG(0xF2);    // 3Gamma Function Disable 
000a1a  20f2              MOVS     r0,#0xf2
000a1c  f7fffffe          BL       LCD_WR_REG
;;;543    		LCD_WR_DATA(0x00); 
000a20  2000              MOVS     r0,#0
000a22  f7fffffe          BL       LCD_WR_DATA
;;;544    		LCD_WR_REG(0x26);    //Gamma curve selected 
000a26  2026              MOVS     r0,#0x26
000a28  f7fffffe          BL       LCD_WR_REG
;;;545    		LCD_WR_DATA(0x01); 
000a2c  2001              MOVS     r0,#1
000a2e  f7fffffe          BL       LCD_WR_DATA
;;;546    		LCD_WR_REG(0xE0);    //Set Gamma 
000a32  20e0              MOVS     r0,#0xe0
000a34  f7fffffe          BL       LCD_WR_REG
;;;547    		LCD_WR_DATA(0x0F); 
000a38  200f              MOVS     r0,#0xf
000a3a  f7fffffe          BL       LCD_WR_DATA
;;;548    		LCD_WR_DATA(0x2A); 
000a3e  202a              MOVS     r0,#0x2a
000a40  f7fffffe          BL       LCD_WR_DATA
;;;549    		LCD_WR_DATA(0x28); 
000a44  2028              MOVS     r0,#0x28
000a46  f7fffffe          BL       LCD_WR_DATA
;;;550    		LCD_WR_DATA(0x08); 
000a4a  2008              MOVS     r0,#8
000a4c  f7fffffe          BL       LCD_WR_DATA
;;;551    		LCD_WR_DATA(0x0E); 
000a50  200e              MOVS     r0,#0xe
000a52  f7fffffe          BL       LCD_WR_DATA
;;;552    		LCD_WR_DATA(0x08); 
000a56  2008              MOVS     r0,#8
000a58  f7fffffe          BL       LCD_WR_DATA
;;;553    		LCD_WR_DATA(0x54); 
000a5c  2054              MOVS     r0,#0x54
000a5e  f7fffffe          BL       LCD_WR_DATA
;;;554    		LCD_WR_DATA(0XA9); 
000a62  20a9              MOVS     r0,#0xa9
000a64  f7fffffe          BL       LCD_WR_DATA
;;;555    		LCD_WR_DATA(0x43); 
000a68  2043              MOVS     r0,#0x43
000a6a  f7fffffe          BL       LCD_WR_DATA
;;;556    		LCD_WR_DATA(0x0A); 
000a6e  200a              MOVS     r0,#0xa
000a70  f7fffffe          BL       LCD_WR_DATA
;;;557    		LCD_WR_DATA(0x0F); 
000a74  200f              MOVS     r0,#0xf
000a76  f7fffffe          BL       LCD_WR_DATA
;;;558    		LCD_WR_DATA(0x00); 
000a7a  2000              MOVS     r0,#0
000a7c  f7fffffe          BL       LCD_WR_DATA
;;;559    		LCD_WR_DATA(0x00); 
000a80  2000              MOVS     r0,#0
000a82  f7fffffe          BL       LCD_WR_DATA
;;;560    		LCD_WR_DATA(0x00); 
000a86  2000              MOVS     r0,#0
000a88  f7fffffe          BL       LCD_WR_DATA
;;;561    		LCD_WR_DATA(0x00); 		 
000a8c  2000              MOVS     r0,#0
000a8e  f7fffffe          BL       LCD_WR_DATA
;;;562    		LCD_WR_REG(0XE1);    //Set Gamma 
000a92  20e1              MOVS     r0,#0xe1
000a94  f7fffffe          BL       LCD_WR_REG
;;;563    		LCD_WR_DATA(0x00); 
000a98  2000              MOVS     r0,#0
000a9a  f7fffffe          BL       LCD_WR_DATA
;;;564    		LCD_WR_DATA(0x15); 
000a9e  2015              MOVS     r0,#0x15
000aa0  f7fffffe          BL       LCD_WR_DATA
;;;565    		LCD_WR_DATA(0x17); 
000aa4  2017              MOVS     r0,#0x17
000aa6  f7fffffe          BL       LCD_WR_DATA
;;;566    		LCD_WR_DATA(0x07); 
000aaa  2007              MOVS     r0,#7
000aac  f7fffffe          BL       LCD_WR_DATA
;;;567    		LCD_WR_DATA(0x11); 
000ab0  2011              MOVS     r0,#0x11
000ab2  f7fffffe          BL       LCD_WR_DATA
;;;568    		LCD_WR_DATA(0x06); 
000ab6  2006              MOVS     r0,#6
000ab8  f7fffffe          BL       LCD_WR_DATA
;;;569    		LCD_WR_DATA(0x2B); 
000abc  202b              MOVS     r0,#0x2b
000abe  f7fffffe          BL       LCD_WR_DATA
;;;570    		LCD_WR_DATA(0x56); 
000ac2  2056              MOVS     r0,#0x56
000ac4  f7fffffe          BL       LCD_WR_DATA
;;;571    		LCD_WR_DATA(0x3C); 
000ac8  203c              MOVS     r0,#0x3c
000aca  f7fffffe          BL       LCD_WR_DATA
;;;572    		LCD_WR_DATA(0x05); 
000ace  2005              MOVS     r0,#5
000ad0  f7fffffe          BL       LCD_WR_DATA
;;;573    		LCD_WR_DATA(0x10); 
000ad4  2010              MOVS     r0,#0x10
000ad6  f7fffffe          BL       LCD_WR_DATA
;;;574    		LCD_WR_DATA(0x0F); 
000ada  200f              MOVS     r0,#0xf
000adc  f7fffffe          BL       LCD_WR_DATA
;;;575    		LCD_WR_DATA(0x3F); 
000ae0  203f              MOVS     r0,#0x3f
000ae2  f7fffffe          BL       LCD_WR_DATA
;;;576    		LCD_WR_DATA(0x3F); 
000ae6  203f              MOVS     r0,#0x3f
000ae8  f7fffffe          BL       LCD_WR_DATA
;;;577    		LCD_WR_DATA(0x0F); 
000aec  200f              MOVS     r0,#0xf
000aee  f7fffffe          BL       LCD_WR_DATA
;;;578    		LCD_WR_REG(0x2B); 
000af2  202b              MOVS     r0,#0x2b
000af4  f7fffffe          BL       LCD_WR_REG
;;;579    		LCD_WR_DATA(0x00);
000af8  2000              MOVS     r0,#0
000afa  f7fffffe          BL       LCD_WR_DATA
;;;580    		LCD_WR_DATA(0x00);
000afe  2000              MOVS     r0,#0
000b00  f7fffffe          BL       LCD_WR_DATA
;;;581    		LCD_WR_DATA(0x01);
000b04  2001              MOVS     r0,#1
000b06  f7fffffe          BL       LCD_WR_DATA
;;;582    		LCD_WR_DATA(0x3f);
000b0a  203f              MOVS     r0,#0x3f
000b0c  f7fffffe          BL       LCD_WR_DATA
;;;583    		LCD_WR_REG(0x2A); 
000b10  202a              MOVS     r0,#0x2a
000b12  f7fffffe          BL       LCD_WR_REG
;;;584    		LCD_WR_DATA(0x00);
000b16  2000              MOVS     r0,#0
000b18  f7fffffe          BL       LCD_WR_DATA
;;;585    		LCD_WR_DATA(0x00);
000b1c  2000              MOVS     r0,#0
000b1e  f7fffffe          BL       LCD_WR_DATA
;;;586    		LCD_WR_DATA(0x00);
000b22  2000              MOVS     r0,#0
000b24  f7fffffe          BL       LCD_WR_DATA
;;;587    		LCD_WR_DATA(0xef);	 
000b28  20ef              MOVS     r0,#0xef
000b2a  f7fffffe          BL       LCD_WR_DATA
;;;588    		LCD_WR_REG(0x11); //Exit Sleep
000b2e  2011              MOVS     r0,#0x11
000b30  f7fffffe          BL       LCD_WR_REG
;;;589    		delay_ms(120);
000b34  2078              MOVS     r0,#0x78
000b36  f7fffffe          BL       delay_ms
;;;590    		LCD_WR_REG(0x29); //display on	
000b3a  2029              MOVS     r0,#0x29
000b3c  f7fffffe          BL       LCD_WR_REG
                  |L1.2880|
000b40  f001ba19          B.W      |L1.8054|
                  |L1.2884|
;;;591    	}else if(lcddev.id==0x6804) //6804初始化
000b44  4848              LDR      r0,|L1.3176|
000b46  8880              LDRH     r0,[r0,#4]  ; lcddev
000b48  f5a041d0          SUB      r1,r0,#0x6800
000b4c  3904              SUBS     r1,#4
000b4e  d17e              BNE      |L1.3150|
;;;592    	{
;;;593    		LCD_WR_REG(0X11);
000b50  2011              MOVS     r0,#0x11
000b52  f7fffffe          BL       LCD_WR_REG
;;;594    		delay_ms(20);
000b56  2014              MOVS     r0,#0x14
000b58  f7fffffe          BL       delay_ms
;;;595    		LCD_WR_REG(0XD0);//VCI1  VCL  VGH  VGL DDVDH VREG1OUT power amplitude setting
000b5c  20d0              MOVS     r0,#0xd0
000b5e  f7fffffe          BL       LCD_WR_REG
;;;596    		LCD_WR_DATA(0X07); 
000b62  2007              MOVS     r0,#7
000b64  f7fffffe          BL       LCD_WR_DATA
;;;597    		LCD_WR_DATA(0X42); 
000b68  2042              MOVS     r0,#0x42
000b6a  f7fffffe          BL       LCD_WR_DATA
;;;598    		LCD_WR_DATA(0X1D); 
000b6e  201d              MOVS     r0,#0x1d
000b70  f7fffffe          BL       LCD_WR_DATA
;;;599    		LCD_WR_REG(0XD1);//VCOMH VCOM_AC amplitude setting
000b74  20d1              MOVS     r0,#0xd1
000b76  f7fffffe          BL       LCD_WR_REG
;;;600    		LCD_WR_DATA(0X00);
000b7a  2000              MOVS     r0,#0
000b7c  f7fffffe          BL       LCD_WR_DATA
;;;601    		LCD_WR_DATA(0X1a);
000b80  201a              MOVS     r0,#0x1a
000b82  f7fffffe          BL       LCD_WR_DATA
;;;602    		LCD_WR_DATA(0X09); 
000b86  2009              MOVS     r0,#9
000b88  f7fffffe          BL       LCD_WR_DATA
;;;603    		LCD_WR_REG(0XD2);//Operational Amplifier Circuit Constant Current Adjust , charge pump frequency setting
000b8c  20d2              MOVS     r0,#0xd2
000b8e  f7fffffe          BL       LCD_WR_REG
;;;604    		LCD_WR_DATA(0X01);
000b92  2001              MOVS     r0,#1
000b94  f7fffffe          BL       LCD_WR_DATA
;;;605    		LCD_WR_DATA(0X22);
000b98  2022              MOVS     r0,#0x22
000b9a  f7fffffe          BL       LCD_WR_DATA
;;;606    		LCD_WR_REG(0XC0);//REV SM GS 
000b9e  20c0              MOVS     r0,#0xc0
000ba0  f7fffffe          BL       LCD_WR_REG
;;;607    		LCD_WR_DATA(0X10);
000ba4  2010              MOVS     r0,#0x10
000ba6  f7fffffe          BL       LCD_WR_DATA
;;;608    		LCD_WR_DATA(0X3B);
000baa  203b              MOVS     r0,#0x3b
000bac  f7fffffe          BL       LCD_WR_DATA
;;;609    		LCD_WR_DATA(0X00);
000bb0  2000              MOVS     r0,#0
000bb2  f7fffffe          BL       LCD_WR_DATA
;;;610    		LCD_WR_DATA(0X02);
000bb6  2002              MOVS     r0,#2
000bb8  f7fffffe          BL       LCD_WR_DATA
;;;611    		LCD_WR_DATA(0X11);
000bbc  2011              MOVS     r0,#0x11
000bbe  f7fffffe          BL       LCD_WR_DATA
;;;612    		
;;;613    		LCD_WR_REG(0XC5);// Frame rate setting = 72HZ  when setting 0x03
000bc2  20c5              MOVS     r0,#0xc5
000bc4  f7fffffe          BL       LCD_WR_REG
;;;614    		LCD_WR_DATA(0X03);
000bc8  2003              MOVS     r0,#3
000bca  f7fffffe          BL       LCD_WR_DATA
;;;615    		
;;;616    		LCD_WR_REG(0XC8);//Gamma setting
000bce  20c8              MOVS     r0,#0xc8
000bd0  f7fffffe          BL       LCD_WR_REG
;;;617    		LCD_WR_DATA(0X00);
000bd4  2000              MOVS     r0,#0
000bd6  f7fffffe          BL       LCD_WR_DATA
;;;618    		LCD_WR_DATA(0X25);
000bda  2025              MOVS     r0,#0x25
000bdc  f7fffffe          BL       LCD_WR_DATA
;;;619    		LCD_WR_DATA(0X21);
000be0  2021              MOVS     r0,#0x21
000be2  f7fffffe          BL       LCD_WR_DATA
;;;620    		LCD_WR_DATA(0X05);
000be6  2005              MOVS     r0,#5
000be8  f7fffffe          BL       LCD_WR_DATA
;;;621    		LCD_WR_DATA(0X00);
000bec  2000              MOVS     r0,#0
000bee  f7fffffe          BL       LCD_WR_DATA
;;;622    		LCD_WR_DATA(0X0a);
000bf2  200a              MOVS     r0,#0xa
000bf4  f7fffffe          BL       LCD_WR_DATA
;;;623    		LCD_WR_DATA(0X65);
000bf8  2065              MOVS     r0,#0x65
000bfa  f7fffffe          BL       LCD_WR_DATA
;;;624    		LCD_WR_DATA(0X25);
000bfe  2025              MOVS     r0,#0x25
000c00  f7fffffe          BL       LCD_WR_DATA
;;;625    		LCD_WR_DATA(0X77);
000c04  2077              MOVS     r0,#0x77
000c06  f7fffffe          BL       LCD_WR_DATA
;;;626    		LCD_WR_DATA(0X50);
000c0a  2050              MOVS     r0,#0x50
000c0c  f7fffffe          BL       LCD_WR_DATA
;;;627    		LCD_WR_DATA(0X0f);
000c10  200f              MOVS     r0,#0xf
000c12  f7fffffe          BL       LCD_WR_DATA
;;;628    		LCD_WR_DATA(0X00);	  
000c16  2000              MOVS     r0,#0
000c18  f7fffffe          BL       LCD_WR_DATA
;;;629    						  
;;;630       		LCD_WR_REG(0XF8);
000c1c  20f8              MOVS     r0,#0xf8
000c1e  f7fffffe          BL       LCD_WR_REG
;;;631    		LCD_WR_DATA(0X01);	  
000c22  2001              MOVS     r0,#1
000c24  f7fffffe          BL       LCD_WR_DATA
;;;632    
;;;633     		LCD_WR_REG(0XFE);
000c28  20fe              MOVS     r0,#0xfe
000c2a  f7fffffe          BL       LCD_WR_REG
;;;634     		LCD_WR_DATA(0X00);
000c2e  2000              MOVS     r0,#0
000c30  f7fffffe          BL       LCD_WR_DATA
;;;635     		LCD_WR_DATA(0X02);
000c34  2002              MOVS     r0,#2
000c36  f7fffffe          BL       LCD_WR_DATA
;;;636    		
;;;637    		LCD_WR_REG(0X20);//Exit invert mode
000c3a  2020              MOVS     r0,#0x20
000c3c  f7fffffe          BL       LCD_WR_REG
;;;638    
;;;639    		LCD_WR_REG(0X36);
000c40  2036              MOVS     r0,#0x36
000c42  f7fffffe          BL       LCD_WR_REG
;;;640    		LCD_WR_DATA(0X08);//原来是a
000c46  2008              MOVS     r0,#8
000c48  f7fffffe          BL       LCD_WR_DATA
;;;641    		
;;;642    		LCD_WR_REG(0X3A);
000c4c  e000              B        |L1.3152|
                  |L1.3150|
000c4e  e036              B        |L1.3262|
                  |L1.3152|
000c50  203a              MOVS     r0,#0x3a
000c52  f7fffffe          BL       LCD_WR_REG
;;;643    		LCD_WR_DATA(0X55);//16位模式	  
000c56  2055              MOVS     r0,#0x55
000c58  f7fffffe          BL       LCD_WR_DATA
;;;644    		LCD_WR_REG(0X2B);
000c5c  202b              MOVS     r0,#0x2b
000c5e  f7fffffe          BL       LCD_WR_REG
;;;645    		LCD_WR_DATA(0X00);
000c62  2000              MOVS     r0,#0
000c64  e00a              B        |L1.3196|
000c66  0000              DCW      0x0000
                  |L1.3176|
                          DCD      lcddev
                  |L1.3180|
000c6c  204c43442049443a25780d0a00        DCB      " LCD ID:%x\r\n",0
000c79  00                DCB      0
000c7a  00                DCB      0
000c7b  00                DCB      0
                  |L1.3196|
000c7c  f7fffffe          BL       LCD_WR_DATA
;;;646    		LCD_WR_DATA(0X00);
000c80  2000              MOVS     r0,#0
000c82  f7fffffe          BL       LCD_WR_DATA
;;;647    		LCD_WR_DATA(0X01);
000c86  2001              MOVS     r0,#1
000c88  f7fffffe          BL       LCD_WR_DATA
;;;648    		LCD_WR_DATA(0X3F);
000c8c  203f              MOVS     r0,#0x3f
000c8e  f7fffffe          BL       LCD_WR_DATA
;;;649    		
;;;650    		LCD_WR_REG(0X2A);
000c92  202a              MOVS     r0,#0x2a
000c94  f7fffffe          BL       LCD_WR_REG
;;;651    		LCD_WR_DATA(0X00);
000c98  2000              MOVS     r0,#0
000c9a  f7fffffe          BL       LCD_WR_DATA
;;;652    		LCD_WR_DATA(0X00);
000c9e  2000              MOVS     r0,#0
000ca0  f7fffffe          BL       LCD_WR_DATA
;;;653    		LCD_WR_DATA(0X01);
000ca4  2001              MOVS     r0,#1
000ca6  f7fffffe          BL       LCD_WR_DATA
;;;654    		LCD_WR_DATA(0XDF);
000caa  20df              MOVS     r0,#0xdf
000cac  f7fffffe          BL       LCD_WR_DATA
;;;655    		delay_ms(120);
000cb0  2078              MOVS     r0,#0x78
000cb2  f7fffffe          BL       delay_ms
;;;656    		LCD_WR_REG(0X29); 	 
000cb6  2029              MOVS     r0,#0x29
000cb8  f7fffffe          BL       LCD_WR_REG
                  |L1.3260|
000cbc  e740              B        |L1.2880|
                  |L1.3262|
;;;657     	}else if(lcddev.id==0x9325)//9325
000cbe  48ff              LDR      r0,|L1.4284|
000cc0  8880              LDRH     r0,[r0,#4]  ; lcddev
000cc2  f5a04113          SUB      r1,r0,#0x9300
000cc6  3925              SUBS     r1,r1,#0x25
000cc8  d17e              BNE      |L1.3528|
;;;658    	{
;;;659    		LCD_WriteReg(0x00E5,0x78F0); 
000cca  f64701f0          MOV      r1,#0x78f0
000cce  20e5              MOVS     r0,#0xe5
000cd0  f7fffffe          BL       LCD_WriteReg
;;;660    		LCD_WriteReg(0x0001,0x0100); 
000cd4  f44f7180          MOV      r1,#0x100
000cd8  2001              MOVS     r0,#1
000cda  f7fffffe          BL       LCD_WriteReg
;;;661    		LCD_WriteReg(0x0002,0x0700); 
000cde  f44f61e0          MOV      r1,#0x700
000ce2  2002              MOVS     r0,#2
000ce4  f7fffffe          BL       LCD_WriteReg
;;;662    		LCD_WriteReg(0x0003,0x1030); 
000ce8  f2410130          MOV      r1,#0x1030
000cec  2003              MOVS     r0,#3
000cee  f7fffffe          BL       LCD_WriteReg
;;;663    		LCD_WriteReg(0x0004,0x0000); 
000cf2  2100              MOVS     r1,#0
000cf4  2004              MOVS     r0,#4
000cf6  f7fffffe          BL       LCD_WriteReg
;;;664    		LCD_WriteReg(0x0008,0x0202);  
000cfa  f2402102          MOV      r1,#0x202
000cfe  2008              MOVS     r0,#8
000d00  f7fffffe          BL       LCD_WriteReg
;;;665    		LCD_WriteReg(0x0009,0x0000);
000d04  2100              MOVS     r1,#0
000d06  2009              MOVS     r0,#9
000d08  f7fffffe          BL       LCD_WriteReg
;;;666    		LCD_WriteReg(0x000A,0x0000); 
000d0c  2100              MOVS     r1,#0
000d0e  200a              MOVS     r0,#0xa
000d10  f7fffffe          BL       LCD_WriteReg
;;;667    		LCD_WriteReg(0x000C,0x0000); 
000d14  2100              MOVS     r1,#0
000d16  200c              MOVS     r0,#0xc
000d18  f7fffffe          BL       LCD_WriteReg
;;;668    		LCD_WriteReg(0x000D,0x0000);
000d1c  2100              MOVS     r1,#0
000d1e  200d              MOVS     r0,#0xd
000d20  f7fffffe          BL       LCD_WriteReg
;;;669    		LCD_WriteReg(0x000F,0x0000);
000d24  2100              MOVS     r1,#0
000d26  200f              MOVS     r0,#0xf
000d28  f7fffffe          BL       LCD_WriteReg
;;;670    		//power on sequence VGHVGL
;;;671    		LCD_WriteReg(0x0010,0x0000);   
000d2c  2100              MOVS     r1,#0
000d2e  2010              MOVS     r0,#0x10
000d30  f7fffffe          BL       LCD_WriteReg
;;;672    		LCD_WriteReg(0x0011,0x0007);  
000d34  2107              MOVS     r1,#7
000d36  2011              MOVS     r0,#0x11
000d38  f7fffffe          BL       LCD_WriteReg
;;;673    		LCD_WriteReg(0x0012,0x0000);  
000d3c  2100              MOVS     r1,#0
000d3e  2012              MOVS     r0,#0x12
000d40  f7fffffe          BL       LCD_WriteReg
;;;674    		LCD_WriteReg(0x0013,0x0000); 
000d44  2100              MOVS     r1,#0
000d46  2013              MOVS     r0,#0x13
000d48  f7fffffe          BL       LCD_WriteReg
;;;675    		LCD_WriteReg(0x0007,0x0000); 
000d4c  2100              MOVS     r1,#0
000d4e  2007              MOVS     r0,#7
000d50  f7fffffe          BL       LCD_WriteReg
;;;676    		//vgh 
;;;677    		LCD_WriteReg(0x0010,0x1690);   
000d54  f2416190          MOV      r1,#0x1690
000d58  2010              MOVS     r0,#0x10
000d5a  f7fffffe          BL       LCD_WriteReg
;;;678    		LCD_WriteReg(0x0011,0x0227);
000d5e  f2402127          MOV      r1,#0x227
000d62  2011              MOVS     r0,#0x11
000d64  f7fffffe          BL       LCD_WriteReg
;;;679    		//delayms(100);
;;;680    		//vregiout 
;;;681    		LCD_WriteReg(0x0012,0x009D); //0x001b
000d68  219d              MOVS     r1,#0x9d
000d6a  2012              MOVS     r0,#0x12
000d6c  f7fffffe          BL       LCD_WriteReg
;;;682    		//delayms(100); 
;;;683    		//vom amplitude
;;;684    		LCD_WriteReg(0x0013,0x1900);
000d70  f44f51c8          MOV      r1,#0x1900
000d74  2013              MOVS     r0,#0x13
000d76  f7fffffe          BL       LCD_WriteReg
;;;685    		//delayms(100); 
;;;686    		//vom H
;;;687    		LCD_WriteReg(0x0029,0x0025); 
000d7a  2125              MOVS     r1,#0x25
000d7c  2029              MOVS     r0,#0x29
000d7e  f7fffffe          BL       LCD_WriteReg
;;;688    		LCD_WriteReg(0x002B,0x000D); 
000d82  210d              MOVS     r1,#0xd
000d84  202b              MOVS     r0,#0x2b
000d86  f7fffffe          BL       LCD_WriteReg
;;;689    		//gamma
;;;690    		LCD_WriteReg(0x0030,0x0007);
000d8a  2107              MOVS     r1,#7
000d8c  2030              MOVS     r0,#0x30
000d8e  f7fffffe          BL       LCD_WriteReg
;;;691    		LCD_WriteReg(0x0031,0x0303);
000d92  f2403103          MOV      r1,#0x303
000d96  2031              MOVS     r0,#0x31
000d98  f7fffffe          BL       LCD_WriteReg
;;;692    		LCD_WriteReg(0x0032,0x0003);// 0006
000d9c  2103              MOVS     r1,#3
000d9e  2032              MOVS     r0,#0x32
000da0  f7fffffe          BL       LCD_WriteReg
;;;693    		LCD_WriteReg(0x0035,0x0206);
000da4  f2402106          MOV      r1,#0x206
000da8  2035              MOVS     r0,#0x35
000daa  f7fffffe          BL       LCD_WriteReg
;;;694    		LCD_WriteReg(0x0036,0x0008);
000dae  2108              MOVS     r1,#8
000db0  2036              MOVS     r0,#0x36
000db2  f7fffffe          BL       LCD_WriteReg
;;;695    		LCD_WriteReg(0x0037,0x0406); 
000db6  f2404106          MOV      r1,#0x406
000dba  2037              MOVS     r0,#0x37
000dbc  f7fffffe          BL       LCD_WriteReg
;;;696    		LCD_WriteReg(0x0038,0x0304);//0200
000dc0  f44f7141          MOV      r1,#0x304
000dc4  2038              MOVS     r0,#0x38
000dc6  e000              B        |L1.3530|
                  |L1.3528|
000dc8  e057              B        |L1.3706|
                  |L1.3530|
000dca  f7fffffe          BL       LCD_WriteReg
;;;697    		LCD_WriteReg(0x0039,0x0007); 
000dce  2107              MOVS     r1,#7
000dd0  2039              MOVS     r0,#0x39
000dd2  f7fffffe          BL       LCD_WriteReg
;;;698    		LCD_WriteReg(0x003C,0x0602);// 0504
000dd6  f2406102          MOV      r1,#0x602
000dda  203c              MOVS     r0,#0x3c
000ddc  f7fffffe          BL       LCD_WriteReg
;;;699    		LCD_WriteReg(0x003D,0x0008); 
000de0  2108              MOVS     r1,#8
000de2  203d              MOVS     r0,#0x3d
000de4  f7fffffe          BL       LCD_WriteReg
;;;700    		//ram
;;;701    		LCD_WriteReg(0x0050,0x0000); 
000de8  2100              MOVS     r1,#0
000dea  2050              MOVS     r0,#0x50
000dec  f7fffffe          BL       LCD_WriteReg
;;;702    		LCD_WriteReg(0x0051,0x00EF);
000df0  21ef              MOVS     r1,#0xef
000df2  2051              MOVS     r0,#0x51
000df4  f7fffffe          BL       LCD_WriteReg
;;;703    		LCD_WriteReg(0x0052,0x0000); 
000df8  2100              MOVS     r1,#0
000dfa  2052              MOVS     r0,#0x52
000dfc  f7fffffe          BL       LCD_WriteReg
;;;704    		LCD_WriteReg(0x0053,0x013F);  
000e00  f240113f          MOV      r1,#0x13f
000e04  2053              MOVS     r0,#0x53
000e06  f7fffffe          BL       LCD_WriteReg
;;;705    		LCD_WriteReg(0x0060,0xA700); 
000e0a  f44f4127          MOV      r1,#0xa700
000e0e  2060              MOVS     r0,#0x60
000e10  f7fffffe          BL       LCD_WriteReg
;;;706    		LCD_WriteReg(0x0061,0x0001); 
000e14  2101              MOVS     r1,#1
000e16  2061              MOVS     r0,#0x61
000e18  f7fffffe          BL       LCD_WriteReg
;;;707    		LCD_WriteReg(0x006A,0x0000); 
000e1c  2100              MOVS     r1,#0
000e1e  206a              MOVS     r0,#0x6a
000e20  f7fffffe          BL       LCD_WriteReg
;;;708    		//
;;;709    		LCD_WriteReg(0x0080,0x0000); 
000e24  2100              MOVS     r1,#0
000e26  2080              MOVS     r0,#0x80
000e28  f7fffffe          BL       LCD_WriteReg
;;;710    		LCD_WriteReg(0x0081,0x0000); 
000e2c  2100              MOVS     r1,#0
000e2e  2081              MOVS     r0,#0x81
000e30  f7fffffe          BL       LCD_WriteReg
;;;711    		LCD_WriteReg(0x0082,0x0000); 
000e34  2100              MOVS     r1,#0
000e36  2082              MOVS     r0,#0x82
000e38  f7fffffe          BL       LCD_WriteReg
;;;712    		LCD_WriteReg(0x0083,0x0000); 
000e3c  2100              MOVS     r1,#0
000e3e  2083              MOVS     r0,#0x83
000e40  f7fffffe          BL       LCD_WriteReg
;;;713    		LCD_WriteReg(0x0084,0x0000); 
000e44  2100              MOVS     r1,#0
000e46  2084              MOVS     r0,#0x84
000e48  f7fffffe          BL       LCD_WriteReg
;;;714    		LCD_WriteReg(0x0085,0x0000); 
000e4c  2100              MOVS     r1,#0
000e4e  2085              MOVS     r0,#0x85
000e50  f7fffffe          BL       LCD_WriteReg
;;;715    		//
;;;716    		LCD_WriteReg(0x0090,0x0010); 
000e54  2110              MOVS     r1,#0x10
000e56  2090              MOVS     r0,#0x90
000e58  f7fffffe          BL       LCD_WriteReg
;;;717    		LCD_WriteReg(0x0092,0x0600); 
000e5c  f44f61c0          MOV      r1,#0x600
000e60  2092              MOVS     r0,#0x92
000e62  f7fffffe          BL       LCD_WriteReg
;;;718    		
;;;719    		LCD_WriteReg(0x0007,0x0133);
000e66  f2401133          MOV      r1,#0x133
000e6a  2007              MOVS     r0,#7
000e6c  f7fffffe          BL       LCD_WriteReg
;;;720    		LCD_WriteReg(0x00,0x0022);//
000e70  2122              MOVS     r1,#0x22
000e72  2000              MOVS     r0,#0
000e74  f7fffffe          BL       LCD_WriteReg
                  |L1.3704|
000e78  e662              B        |L1.2880|
                  |L1.3706|
;;;721    	}else if(lcddev.id==0x9328)//ILI9328   OK  
000e7a  4890              LDR      r0,|L1.4284|
000e7c  8880              LDRH     r0,[r0,#4]  ; lcddev
000e7e  f5a04113          SUB      r1,r0,#0x9300
000e82  3928              SUBS     r1,r1,#0x28
000e84  d17e              BNE      |L1.3972|
;;;722    	{
;;;723      		LCD_WriteReg(0x00EC,0x108F);// internal timeing      
000e86  f241018f          MOV      r1,#0x108f
000e8a  20ec              MOVS     r0,#0xec
000e8c  f7fffffe          BL       LCD_WriteReg
;;;724     		LCD_WriteReg(0x00EF,0x1234);// ADD        
000e90  f2412134          MOV      r1,#0x1234
000e94  20ef              MOVS     r0,#0xef
000e96  f7fffffe          BL       LCD_WriteReg
;;;725    		//LCD_WriteReg(0x00e7,0x0010);      
;;;726            //LCD_WriteReg(0x0000,0x0001);//开启内部时钟
;;;727            LCD_WriteReg(0x0001,0x0100);     
000e9a  f44f7180          MOV      r1,#0x100
000e9e  2001              MOVS     r0,#1
000ea0  f7fffffe          BL       LCD_WriteReg
;;;728            LCD_WriteReg(0x0002,0x0700);//电源开启                    
000ea4  f44f61e0          MOV      r1,#0x700
000ea8  2002              MOVS     r0,#2
000eaa  f7fffffe          BL       LCD_WriteReg
;;;729    		//LCD_WriteReg(0x0003,(1<<3)|(1<<4) ); 	//65K  RGB
;;;730    		//DRIVE TABLE(寄存器 03H)
;;;731    		//BIT3=AM BIT4:5=ID0:1
;;;732    		//AM ID0 ID1   FUNCATION
;;;733    		// 0  0   0	   R->L D->U
;;;734    		// 1  0   0	   D->U	R->L
;;;735    		// 0  1   0	   L->R D->U
;;;736    		// 1  1   0    D->U	L->R
;;;737    		// 0  0   1	   R->L U->D
;;;738    		// 1  0   1    U->D	R->L
;;;739    		// 0  1   1    L->R U->D 正常就用这个.
;;;740    		// 1  1   1	   U->D	L->R
;;;741            LCD_WriteReg(0x0003,(1<<12)|(3<<4)|(0<<3) );//65K    
000eae  f2410130          MOV      r1,#0x1030
000eb2  2003              MOVS     r0,#3
000eb4  f7fffffe          BL       LCD_WriteReg
;;;742            LCD_WriteReg(0x0004,0x0000);                                   
000eb8  2100              MOVS     r1,#0
000eba  2004              MOVS     r0,#4
000ebc  f7fffffe          BL       LCD_WriteReg
;;;743            LCD_WriteReg(0x0008,0x0202);	           
000ec0  f2402102          MOV      r1,#0x202
000ec4  2008              MOVS     r0,#8
000ec6  f7fffffe          BL       LCD_WriteReg
;;;744            LCD_WriteReg(0x0009,0x0000);         
000eca  2100              MOVS     r1,#0
000ecc  2009              MOVS     r0,#9
000ece  f7fffffe          BL       LCD_WriteReg
;;;745            LCD_WriteReg(0x000a,0x0000);//display setting         
000ed2  2100              MOVS     r1,#0
000ed4  200a              MOVS     r0,#0xa
000ed6  f7fffffe          BL       LCD_WriteReg
;;;746            LCD_WriteReg(0x000c,0x0001);//display setting          
000eda  2101              MOVS     r1,#1
000edc  200c              MOVS     r0,#0xc
000ede  f7fffffe          BL       LCD_WriteReg
;;;747            LCD_WriteReg(0x000d,0x0000);//0f3c          
000ee2  2100              MOVS     r1,#0
000ee4  200d              MOVS     r0,#0xd
000ee6  f7fffffe          BL       LCD_WriteReg
;;;748            LCD_WriteReg(0x000f,0x0000);
000eea  2100              MOVS     r1,#0
000eec  200f              MOVS     r0,#0xf
000eee  f7fffffe          BL       LCD_WriteReg
;;;749    		//电源配置
;;;750            LCD_WriteReg(0x0010,0x0000);   
000ef2  2100              MOVS     r1,#0
000ef4  2010              MOVS     r0,#0x10
000ef6  f7fffffe          BL       LCD_WriteReg
;;;751            LCD_WriteReg(0x0011,0x0007);
000efa  2107              MOVS     r1,#7
000efc  2011              MOVS     r0,#0x11
000efe  f7fffffe          BL       LCD_WriteReg
;;;752            LCD_WriteReg(0x0012,0x0000);                                                                 
000f02  2100              MOVS     r1,#0
000f04  2012              MOVS     r0,#0x12
000f06  f7fffffe          BL       LCD_WriteReg
;;;753            LCD_WriteReg(0x0013,0x0000);                 
000f0a  2100              MOVS     r1,#0
000f0c  2013              MOVS     r0,#0x13
000f0e  f7fffffe          BL       LCD_WriteReg
;;;754         	LCD_WriteReg(0x0007,0x0001);                 
000f12  2101              MOVS     r1,#1
000f14  2007              MOVS     r0,#7
000f16  f7fffffe          BL       LCD_WriteReg
;;;755           	delay_ms(50); 
000f1a  2032              MOVS     r0,#0x32
000f1c  f7fffffe          BL       delay_ms
;;;756            LCD_WriteReg(0x0010,0x1490);   
000f20  f2414190          MOV      r1,#0x1490
000f24  2010              MOVS     r0,#0x10
000f26  f7fffffe          BL       LCD_WriteReg
;;;757            LCD_WriteReg(0x0011,0x0227);
000f2a  f2402127          MOV      r1,#0x227
000f2e  2011              MOVS     r0,#0x11
000f30  f7fffffe          BL       LCD_WriteReg
;;;758            delay_ms(50); 
000f34  2032              MOVS     r0,#0x32
000f36  f7fffffe          BL       delay_ms
;;;759            LCD_WriteReg(0x0012,0x008A);                  
000f3a  218a              MOVS     r1,#0x8a
000f3c  2012              MOVS     r0,#0x12
000f3e  f7fffffe          BL       LCD_WriteReg
;;;760            delay_ms(50); 
000f42  2032              MOVS     r0,#0x32
000f44  f7fffffe          BL       delay_ms
;;;761            LCD_WriteReg(0x0013,0x1a00);   
000f48  f44f51d0          MOV      r1,#0x1a00
000f4c  2013              MOVS     r0,#0x13
000f4e  f7fffffe          BL       LCD_WriteReg
;;;762            LCD_WriteReg(0x0029,0x0006);
000f52  2106              MOVS     r1,#6
000f54  2029              MOVS     r0,#0x29
000f56  f7fffffe          BL       LCD_WriteReg
;;;763            LCD_WriteReg(0x002b,0x000d);
000f5a  210d              MOVS     r1,#0xd
000f5c  202b              MOVS     r0,#0x2b
000f5e  f7fffffe          BL       LCD_WriteReg
;;;764            delay_ms(50); 
000f62  2032              MOVS     r0,#0x32
000f64  f7fffffe          BL       delay_ms
;;;765            LCD_WriteReg(0x0020,0x0000);                                                            
000f68  2100              MOVS     r1,#0
000f6a  2020              MOVS     r0,#0x20
000f6c  f7fffffe          BL       LCD_WriteReg
;;;766            LCD_WriteReg(0x0021,0x0000);           
000f70  2100              MOVS     r1,#0
000f72  2021              MOVS     r0,#0x21
000f74  f7fffffe          BL       LCD_WriteReg
;;;767    		delay_ms(50); 
000f78  2032              MOVS     r0,#0x32
000f7a  f7fffffe          BL       delay_ms
;;;768    		//伽马校正
;;;769            LCD_WriteReg(0x0030,0x0000); 
000f7e  2100              MOVS     r1,#0
000f80  2030              MOVS     r0,#0x30
000f82  e000              B        |L1.3974|
                  |L1.3972|
000f84  e074              B        |L1.4208|
                  |L1.3974|
000f86  f7fffffe          BL       LCD_WriteReg
;;;770            LCD_WriteReg(0x0031,0x0604);   
000f8a  f2406104          MOV      r1,#0x604
000f8e  2031              MOVS     r0,#0x31
000f90  f7fffffe          BL       LCD_WriteReg
;;;771            LCD_WriteReg(0x0032,0x0305);
000f94  f2403105          MOV      r1,#0x305
000f98  2032              MOVS     r0,#0x32
000f9a  f7fffffe          BL       LCD_WriteReg
;;;772            LCD_WriteReg(0x0035,0x0000);
000f9e  2100              MOVS     r1,#0
000fa0  2035              MOVS     r0,#0x35
000fa2  f7fffffe          BL       LCD_WriteReg
;;;773            LCD_WriteReg(0x0036,0x0C09); 
000fa6  f6404109          MOV      r1,#0xc09
000faa  2036              MOVS     r0,#0x36
000fac  f7fffffe          BL       LCD_WriteReg
;;;774            LCD_WriteReg(0x0037,0x0204);
000fb0  f44f7101          MOV      r1,#0x204
000fb4  2037              MOVS     r0,#0x37
000fb6  f7fffffe          BL       LCD_WriteReg
;;;775            LCD_WriteReg(0x0038,0x0301);        
000fba  f2403101          MOV      r1,#0x301
000fbe  2038              MOVS     r0,#0x38
000fc0  f7fffffe          BL       LCD_WriteReg
;;;776            LCD_WriteReg(0x0039,0x0707);     
000fc4  f2407107          MOV      r1,#0x707
000fc8  2039              MOVS     r0,#0x39
000fca  f7fffffe          BL       LCD_WriteReg
;;;777            LCD_WriteReg(0x003c,0x0000);
000fce  2100              MOVS     r1,#0
000fd0  203c              MOVS     r0,#0x3c
000fd2  f7fffffe          BL       LCD_WriteReg
;;;778            LCD_WriteReg(0x003d,0x0a0a);
000fd6  f640210a          MOV      r1,#0xa0a
000fda  203d              MOVS     r0,#0x3d
000fdc  f7fffffe          BL       LCD_WriteReg
;;;779            delay_ms(50); 
000fe0  2032              MOVS     r0,#0x32
000fe2  f7fffffe          BL       delay_ms
;;;780            LCD_WriteReg(0x0050,0x0000); //水平GRAM起始位置 
000fe6  2100              MOVS     r1,#0
000fe8  2050              MOVS     r0,#0x50
000fea  f7fffffe          BL       LCD_WriteReg
;;;781            LCD_WriteReg(0x0051,0x00ef); //水平GRAM终止位置                    
000fee  21ef              MOVS     r1,#0xef
000ff0  2051              MOVS     r0,#0x51
000ff2  f7fffffe          BL       LCD_WriteReg
;;;782            LCD_WriteReg(0x0052,0x0000); //垂直GRAM起始位置                    
000ff6  2100              MOVS     r1,#0
000ff8  2052              MOVS     r0,#0x52
000ffa  f7fffffe          BL       LCD_WriteReg
;;;783            LCD_WriteReg(0x0053,0x013f); //垂直GRAM终止位置  
000ffe  f240113f          MOV      r1,#0x13f
001002  2053              MOVS     r0,#0x53
001004  f7fffffe          BL       LCD_WriteReg
;;;784     
;;;785             LCD_WriteReg(0x0060,0xa700);        
001008  f44f4127          MOV      r1,#0xa700
00100c  2060              MOVS     r0,#0x60
00100e  f7fffffe          BL       LCD_WriteReg
;;;786            LCD_WriteReg(0x0061,0x0001); 
001012  2101              MOVS     r1,#1
001014  2061              MOVS     r0,#0x61
001016  f7fffffe          BL       LCD_WriteReg
;;;787            LCD_WriteReg(0x006a,0x0000);
00101a  2100              MOVS     r1,#0
00101c  206a              MOVS     r0,#0x6a
00101e  f7fffffe          BL       LCD_WriteReg
;;;788            LCD_WriteReg(0x0080,0x0000);
001022  2100              MOVS     r1,#0
001024  2080              MOVS     r0,#0x80
001026  f7fffffe          BL       LCD_WriteReg
;;;789            LCD_WriteReg(0x0081,0x0000);
00102a  2100              MOVS     r1,#0
00102c  2081              MOVS     r0,#0x81
00102e  f7fffffe          BL       LCD_WriteReg
;;;790            LCD_WriteReg(0x0082,0x0000);
001032  2100              MOVS     r1,#0
001034  2082              MOVS     r0,#0x82
001036  f7fffffe          BL       LCD_WriteReg
;;;791            LCD_WriteReg(0x0083,0x0000);
00103a  2100              MOVS     r1,#0
00103c  2083              MOVS     r0,#0x83
00103e  f7fffffe          BL       LCD_WriteReg
;;;792            LCD_WriteReg(0x0084,0x0000);
001042  2100              MOVS     r1,#0
001044  2084              MOVS     r0,#0x84
001046  f7fffffe          BL       LCD_WriteReg
;;;793            LCD_WriteReg(0x0085,0x0000);
00104a  2100              MOVS     r1,#0
00104c  2085              MOVS     r0,#0x85
00104e  f7fffffe          BL       LCD_WriteReg
;;;794          
;;;795            LCD_WriteReg(0x0090,0x0010);     
001052  2110              MOVS     r1,#0x10
001054  2090              MOVS     r0,#0x90
001056  f7fffffe          BL       LCD_WriteReg
;;;796            LCD_WriteReg(0x0092,0x0600);  
00105a  f44f61c0          MOV      r1,#0x600
00105e  2092              MOVS     r0,#0x92
001060  f7fffffe          BL       LCD_WriteReg
;;;797            //开启显示设置    
;;;798            LCD_WriteReg(0x0007,0x0133); 
001064  f2401133          MOV      r1,#0x133
001068  2007              MOVS     r0,#7
00106a  f7fffffe          BL       LCD_WriteReg
                  |L1.4206|
00106e  e567              B        |L1.2880|
                  |L1.4208|
;;;799    	}else if(lcddev.id==0x9320)//测试OK.
001070  4812              LDR      r0,|L1.4284|
001072  8880              LDRH     r0,[r0,#4]  ; lcddev
001074  f5a04113          SUB      r1,r0,#0x9300
001078  3920              SUBS     r1,r1,#0x20
00107a  d17d              BNE      |L1.4472|
;;;800    	{
;;;801    		LCD_WriteReg(0x00,0x0000);
00107c  4608              MOV      r0,r1
00107e  f7fffffe          BL       LCD_WriteReg
;;;802    		LCD_WriteReg(0x01,0x0100);	//Driver Output Contral.
001082  f44f7180          MOV      r1,#0x100
001086  2001              MOVS     r0,#1
001088  f7fffffe          BL       LCD_WriteReg
;;;803    		LCD_WriteReg(0x02,0x0700);	//LCD Driver Waveform Contral.
00108c  f44f61e0          MOV      r1,#0x700
001090  2002              MOVS     r0,#2
001092  f7fffffe          BL       LCD_WriteReg
;;;804    		LCD_WriteReg(0x03,0x1030);//Entry Mode Set.
001096  f2410130          MOV      r1,#0x1030
00109a  2003              MOVS     r0,#3
00109c  f7fffffe          BL       LCD_WriteReg
;;;805    		//LCD_WriteReg(0x03,0x1018);	//Entry Mode Set.
;;;806    	
;;;807    		LCD_WriteReg(0x04,0x0000);	//Scalling Contral.
0010a0  2100              MOVS     r1,#0
0010a2  2004              MOVS     r0,#4
0010a4  f7fffffe          BL       LCD_WriteReg
;;;808    		LCD_WriteReg(0x08,0x0202);	//Display Contral 2.(0x0207)
0010a8  f2402102          MOV      r1,#0x202
0010ac  2008              MOVS     r0,#8
0010ae  f7fffffe          BL       LCD_WriteReg
;;;809    		LCD_WriteReg(0x09,0x0000);	//Display Contral 3.(0x0000)
0010b2  2100              MOVS     r1,#0
0010b4  2009              MOVS     r0,#9
0010b6  f7fffffe          BL       LCD_WriteReg
;;;810    		LCD_WriteReg(0x0a,0x0000);	//Frame Cycle Contal.(0x0000)
0010ba  e001              B        |L1.4288|
                  |L1.4284|
                          DCD      lcddev
                  |L1.4288|
0010c0  2100              MOVS     r1,#0
0010c2  200a              MOVS     r0,#0xa
0010c4  f7fffffe          BL       LCD_WriteReg
;;;811    		LCD_WriteReg(0x0c,(1<<0));	//Extern Display Interface Contral 1.(0x0000)
0010c8  2101              MOVS     r1,#1
0010ca  200c              MOVS     r0,#0xc
0010cc  f7fffffe          BL       LCD_WriteReg
;;;812    		LCD_WriteReg(0x0d,0x0000);	//Frame Maker Position.
0010d0  2100              MOVS     r1,#0
0010d2  200d              MOVS     r0,#0xd
0010d4  f7fffffe          BL       LCD_WriteReg
;;;813    		LCD_WriteReg(0x0f,0x0000);	//Extern Display Interface Contral 2.	    
0010d8  2100              MOVS     r1,#0
0010da  200f              MOVS     r0,#0xf
0010dc  f7fffffe          BL       LCD_WriteReg
;;;814    		delay_ms(50); 
0010e0  2032              MOVS     r0,#0x32
0010e2  f7fffffe          BL       delay_ms
;;;815    		LCD_WriteReg(0x07,0x0101);	//Display Contral.
0010e6  f2401101          MOV      r1,#0x101
0010ea  2007              MOVS     r0,#7
0010ec  f7fffffe          BL       LCD_WriteReg
;;;816    		delay_ms(50); 								  
0010f0  2032              MOVS     r0,#0x32
0010f2  f7fffffe          BL       delay_ms
;;;817    		LCD_WriteReg(0x10,(1<<12)|(0<<8)|(1<<7)|(1<<6)|(0<<4));	//Power Control 1.(0x16b0)
0010f6  f44f5186          MOV      r1,#0x10c0
0010fa  2010              MOVS     r0,#0x10
0010fc  f7fffffe          BL       LCD_WriteReg
;;;818    		LCD_WriteReg(0x11,0x0007);								//Power Control 2.(0x0001)
001100  2107              MOVS     r1,#7
001102  2011              MOVS     r0,#0x11
001104  f7fffffe          BL       LCD_WriteReg
;;;819    		LCD_WriteReg(0x12,(1<<8)|(1<<4)|(0<<0));				//Power Control 3.(0x0138)
001108  f44f7188          MOV      r1,#0x110
00110c  2012              MOVS     r0,#0x12
00110e  f7fffffe          BL       LCD_WriteReg
;;;820    		LCD_WriteReg(0x13,0x0b00);								//Power Control 4.
001112  f44f6130          MOV      r1,#0xb00
001116  2013              MOVS     r0,#0x13
001118  f7fffffe          BL       LCD_WriteReg
;;;821    		LCD_WriteReg(0x29,0x0000);								//Power Control 7.
00111c  2100              MOVS     r1,#0
00111e  2029              MOVS     r0,#0x29
001120  f7fffffe          BL       LCD_WriteReg
;;;822    	
;;;823    		LCD_WriteReg(0x2b,(1<<14)|(1<<4));	    
001124  f2440110          MOV      r1,#0x4010
001128  202b              MOVS     r0,#0x2b
00112a  f7fffffe          BL       LCD_WriteReg
;;;824    		LCD_WriteReg(0x50,0);	//Set X Star
00112e  2100              MOVS     r1,#0
001130  2050              MOVS     r0,#0x50
001132  f7fffffe          BL       LCD_WriteReg
;;;825    		//水平GRAM终止位置Set X End.
;;;826    		LCD_WriteReg(0x51,239);	//Set Y Star
001136  21ef              MOVS     r1,#0xef
001138  2051              MOVS     r0,#0x51
00113a  f7fffffe          BL       LCD_WriteReg
;;;827    		LCD_WriteReg(0x52,0);	//Set Y End.t.
00113e  2100              MOVS     r1,#0
001140  2052              MOVS     r0,#0x52
001142  f7fffffe          BL       LCD_WriteReg
;;;828    		LCD_WriteReg(0x53,319);	//
001146  f240113f          MOV      r1,#0x13f
00114a  2053              MOVS     r0,#0x53
00114c  f7fffffe          BL       LCD_WriteReg
;;;829    	
;;;830    		LCD_WriteReg(0x60,0x2700);	//Driver Output Control.
001150  f44f511c          MOV      r1,#0x2700
001154  2060              MOVS     r0,#0x60
001156  f7fffffe          BL       LCD_WriteReg
;;;831    		LCD_WriteReg(0x61,0x0001);	//Driver Output Control.
00115a  2101              MOVS     r1,#1
00115c  2061              MOVS     r0,#0x61
00115e  f7fffffe          BL       LCD_WriteReg
;;;832    		LCD_WriteReg(0x6a,0x0000);	//Vertical Srcoll Control.
001162  2100              MOVS     r1,#0
001164  206a              MOVS     r0,#0x6a
001166  f7fffffe          BL       LCD_WriteReg
;;;833    	
;;;834    		LCD_WriteReg(0x80,0x0000);	//Display Position? Partial Display 1.
00116a  2100              MOVS     r1,#0
00116c  2080              MOVS     r0,#0x80
00116e  f7fffffe          BL       LCD_WriteReg
;;;835    		LCD_WriteReg(0x81,0x0000);	//RAM Address Start? Partial Display 1.
001172  2100              MOVS     r1,#0
001174  2081              MOVS     r0,#0x81
001176  e000              B        |L1.4474|
                  |L1.4472|
001178  e030              B        |L1.4572|
                  |L1.4474|
00117a  f7fffffe          BL       LCD_WriteReg
;;;836    		LCD_WriteReg(0x82,0x0000);	//RAM Address End-Partial Display 1.
00117e  2100              MOVS     r1,#0
001180  2082              MOVS     r0,#0x82
001182  f7fffffe          BL       LCD_WriteReg
;;;837    		LCD_WriteReg(0x83,0x0000);	//Displsy Position? Partial Display 2.
001186  2100              MOVS     r1,#0
001188  2083              MOVS     r0,#0x83
00118a  f7fffffe          BL       LCD_WriteReg
;;;838    		LCD_WriteReg(0x84,0x0000);	//RAM Address Start? Partial Display 2.
00118e  2100              MOVS     r1,#0
001190  2084              MOVS     r0,#0x84
001192  f7fffffe          BL       LCD_WriteReg
;;;839    		LCD_WriteReg(0x85,0x0000);	//RAM Address End? Partial Display 2.
001196  2100              MOVS     r1,#0
001198  2085              MOVS     r0,#0x85
00119a  f7fffffe          BL       LCD_WriteReg
;;;840    	
;;;841    		LCD_WriteReg(0x90,(0<<7)|(16<<0));	//Frame Cycle Contral.(0x0013)
00119e  2110              MOVS     r1,#0x10
0011a0  2090              MOVS     r0,#0x90
0011a2  f7fffffe          BL       LCD_WriteReg
;;;842    		LCD_WriteReg(0x92,0x0000);	//Panel Interface Contral 2.(0x0000)
0011a6  2100              MOVS     r1,#0
0011a8  2092              MOVS     r0,#0x92
0011aa  f7fffffe          BL       LCD_WriteReg
;;;843    		LCD_WriteReg(0x93,0x0001);	//Panel Interface Contral 3.
0011ae  2101              MOVS     r1,#1
0011b0  2093              MOVS     r0,#0x93
0011b2  f7fffffe          BL       LCD_WriteReg
;;;844    		LCD_WriteReg(0x95,0x0110);	//Frame Cycle Contral.(0x0110)
0011b6  f44f7188          MOV      r1,#0x110
0011ba  2095              MOVS     r0,#0x95
0011bc  f7fffffe          BL       LCD_WriteReg
;;;845    		LCD_WriteReg(0x97,(0<<8));	//
0011c0  2100              MOVS     r1,#0
0011c2  2097              MOVS     r0,#0x97
0011c4  f7fffffe          BL       LCD_WriteReg
;;;846    		LCD_WriteReg(0x98,0x0000);	//Frame Cycle Contral.	   
0011c8  2100              MOVS     r1,#0
0011ca  2098              MOVS     r0,#0x98
0011cc  f7fffffe          BL       LCD_WriteReg
;;;847    		LCD_WriteReg(0x07,0x0173);	//(0x0173)
0011d0  f2401173          MOV      r1,#0x173
0011d4  2007              MOVS     r0,#7
0011d6  f7fffffe          BL       LCD_WriteReg
0011da  e4b1              B        |L1.2880|
                  |L1.4572|
;;;848    	}else if(lcddev.id==0X9331)//OK |/|/|			 
0011dc  48ff              LDR      r0,|L1.5596|
0011de  8880              LDRH     r0,[r0,#4]  ; lcddev
0011e0  f5a04113          SUB      r1,r0,#0x9300
0011e4  3931              SUBS     r1,r1,#0x31
0011e6  d17d              BNE      |L1.4836|
;;;849    	{
;;;850    		LCD_WriteReg(0x00E7, 0x1014);
0011e8  f2410114          MOV      r1,#0x1014
0011ec  20e7              MOVS     r0,#0xe7
0011ee  f7fffffe          BL       LCD_WriteReg
;;;851    		LCD_WriteReg(0x0001, 0x0100); // set SS and SM bit
0011f2  f44f7180          MOV      r1,#0x100
0011f6  2001              MOVS     r0,#1
0011f8  f7fffffe          BL       LCD_WriteReg
;;;852    		LCD_WriteReg(0x0002, 0x0200); // set 1 line inversion
0011fc  f44f7100          MOV      r1,#0x200
001200  2002              MOVS     r0,#2
001202  f7fffffe          BL       LCD_WriteReg
;;;853            LCD_WriteReg(0x0003,(1<<12)|(3<<4)|(1<<3));//65K    
001206  f2410138          MOV      r1,#0x1038
00120a  2003              MOVS     r0,#3
00120c  f7fffffe          BL       LCD_WriteReg
;;;854    		//LCD_WriteReg(0x0003, 0x1030); // set GRAM write direction and BGR=1.
;;;855    		LCD_WriteReg(0x0008, 0x0202); // set the back porch and front porch
001210  f2402102          MOV      r1,#0x202
001214  2008              MOVS     r0,#8
001216  f7fffffe          BL       LCD_WriteReg
;;;856    		LCD_WriteReg(0x0009, 0x0000); // set non-display area refresh cycle ISC[3:0]
00121a  2100              MOVS     r1,#0
00121c  2009              MOVS     r0,#9
00121e  f7fffffe          BL       LCD_WriteReg
;;;857    		LCD_WriteReg(0x000A, 0x0000); // FMARK function
001222  2100              MOVS     r1,#0
001224  200a              MOVS     r0,#0xa
001226  f7fffffe          BL       LCD_WriteReg
;;;858    		LCD_WriteReg(0x000C, 0x0000); // RGB interface setting
00122a  2100              MOVS     r1,#0
00122c  200c              MOVS     r0,#0xc
00122e  f7fffffe          BL       LCD_WriteReg
;;;859    		LCD_WriteReg(0x000D, 0x0000); // Frame marker Position
001232  2100              MOVS     r1,#0
001234  200d              MOVS     r0,#0xd
001236  f7fffffe          BL       LCD_WriteReg
;;;860    		LCD_WriteReg(0x000F, 0x0000); // RGB interface polarity
00123a  2100              MOVS     r1,#0
00123c  200f              MOVS     r0,#0xf
00123e  f7fffffe          BL       LCD_WriteReg
;;;861    		//*************Power On sequence ****************//
;;;862    		LCD_WriteReg(0x0010, 0x0000); // SAP, BT[3:0], AP, DSTB, SLP, STB
001242  2100              MOVS     r1,#0
001244  2010              MOVS     r0,#0x10
001246  f7fffffe          BL       LCD_WriteReg
;;;863    		LCD_WriteReg(0x0011, 0x0007); // DC1[2:0], DC0[2:0], VC[2:0]
00124a  2107              MOVS     r1,#7
00124c  2011              MOVS     r0,#0x11
00124e  f7fffffe          BL       LCD_WriteReg
;;;864    		LCD_WriteReg(0x0012, 0x0000); // VREG1OUT voltage
001252  2100              MOVS     r1,#0
001254  2012              MOVS     r0,#0x12
001256  f7fffffe          BL       LCD_WriteReg
;;;865    		LCD_WriteReg(0x0013, 0x0000); // VDV[4:0] for VCOM amplitude
00125a  2100              MOVS     r1,#0
00125c  2013              MOVS     r0,#0x13
00125e  f7fffffe          BL       LCD_WriteReg
;;;866    		delay_ms(200); // Dis-charge capacitor power voltage
001262  20c8              MOVS     r0,#0xc8
001264  f7fffffe          BL       delay_ms
;;;867    		LCD_WriteReg(0x0010, 0x1690); // SAP, BT[3:0], AP, DSTB, SLP, STB
001268  f2416190          MOV      r1,#0x1690
00126c  2010              MOVS     r0,#0x10
00126e  f7fffffe          BL       LCD_WriteReg
;;;868    		LCD_WriteReg(0x0011, 0x0227); // DC1[2:0], DC0[2:0], VC[2:0]
001272  f2402127          MOV      r1,#0x227
001276  2011              MOVS     r0,#0x11
001278  f7fffffe          BL       LCD_WriteReg
;;;869    		delay_ms(50); // Delay 50ms
00127c  2032              MOVS     r0,#0x32
00127e  f7fffffe          BL       delay_ms
;;;870    		LCD_WriteReg(0x0012, 0x000C); // Internal reference voltage= Vci;
001282  210c              MOVS     r1,#0xc
001284  2012              MOVS     r0,#0x12
001286  f7fffffe          BL       LCD_WriteReg
;;;871    		delay_ms(50); // Delay 50ms
00128a  2032              MOVS     r0,#0x32
00128c  f7fffffe          BL       delay_ms
;;;872    		LCD_WriteReg(0x0013, 0x0800); // Set VDV[4:0] for VCOM amplitude
001290  f44f6100          MOV      r1,#0x800
001294  2013              MOVS     r0,#0x13
001296  f7fffffe          BL       LCD_WriteReg
;;;873    		LCD_WriteReg(0x0029, 0x0011); // Set VCM[5:0] for VCOMH
00129a  2111              MOVS     r1,#0x11
00129c  2029              MOVS     r0,#0x29
00129e  f7fffffe          BL       LCD_WriteReg
;;;874    		LCD_WriteReg(0x002B, 0x000B); // Set Frame Rate
0012a2  210b              MOVS     r1,#0xb
0012a4  202b              MOVS     r0,#0x2b
0012a6  f7fffffe          BL       LCD_WriteReg
;;;875    		delay_ms(50); // Delay 50ms
0012aa  2032              MOVS     r0,#0x32
0012ac  f7fffffe          BL       delay_ms
;;;876    		LCD_WriteReg(0x0020, 0x0000); // GRAM horizontal Address
0012b0  2100              MOVS     r1,#0
0012b2  2020              MOVS     r0,#0x20
0012b4  f7fffffe          BL       LCD_WriteReg
;;;877    		LCD_WriteReg(0x0021, 0x013f); // GRAM Vertical Address
0012b8  f240113f          MOV      r1,#0x13f
0012bc  2021              MOVS     r0,#0x21
0012be  f7fffffe          BL       LCD_WriteReg
;;;878    		// ----------- Adjust the Gamma Curve ----------//
;;;879    		LCD_WriteReg(0x0030, 0x0000);
0012c2  2100              MOVS     r1,#0
0012c4  2030              MOVS     r0,#0x30
0012c6  f7fffffe          BL       LCD_WriteReg
;;;880    		LCD_WriteReg(0x0031, 0x0106);
0012ca  f44f7183          MOV      r1,#0x106
0012ce  2031              MOVS     r0,#0x31
0012d0  f7fffffe          BL       LCD_WriteReg
;;;881    		LCD_WriteReg(0x0032, 0x0000);
0012d4  2100              MOVS     r1,#0
0012d6  2032              MOVS     r0,#0x32
0012d8  f7fffffe          BL       LCD_WriteReg
;;;882    		LCD_WriteReg(0x0035, 0x0204);
0012dc  f44f7101          MOV      r1,#0x204
0012e0  2035              MOVS     r0,#0x35
0012e2  e000              B        |L1.4838|
                  |L1.4836|
0012e4  e064              B        |L1.5040|
                  |L1.4838|
0012e6  f7fffffe          BL       LCD_WriteReg
;;;883    		LCD_WriteReg(0x0036, 0x160A);
0012ea  f241610a          MOV      r1,#0x160a
0012ee  2036              MOVS     r0,#0x36
0012f0  f7fffffe          BL       LCD_WriteReg
;;;884    		LCD_WriteReg(0x0037, 0x0707);
0012f4  f2407107          MOV      r1,#0x707
0012f8  2037              MOVS     r0,#0x37
0012fa  f7fffffe          BL       LCD_WriteReg
;;;885    		LCD_WriteReg(0x0038, 0x0106);
0012fe  f44f7183          MOV      r1,#0x106
001302  2038              MOVS     r0,#0x38
001304  f7fffffe          BL       LCD_WriteReg
;;;886    		LCD_WriteReg(0x0039, 0x0707);
001308  f2407107          MOV      r1,#0x707
00130c  2039              MOVS     r0,#0x39
00130e  f7fffffe          BL       LCD_WriteReg
;;;887    		LCD_WriteReg(0x003C, 0x0402);
001312  f2404102          MOV      r1,#0x402
001316  203c              MOVS     r0,#0x3c
001318  f7fffffe          BL       LCD_WriteReg
;;;888    		LCD_WriteReg(0x003D, 0x0C0F);
00131c  f640410f          MOV      r1,#0xc0f
001320  203d              MOVS     r0,#0x3d
001322  f7fffffe          BL       LCD_WriteReg
;;;889    		//------------------ Set GRAM area ---------------//
;;;890    		LCD_WriteReg(0x0050, 0x0000); // Horizontal GRAM Start Address
001326  2100              MOVS     r1,#0
001328  2050              MOVS     r0,#0x50
00132a  f7fffffe          BL       LCD_WriteReg
;;;891    		LCD_WriteReg(0x0051, 0x00EF); // Horizontal GRAM End Address
00132e  21ef              MOVS     r1,#0xef
001330  2051              MOVS     r0,#0x51
001332  f7fffffe          BL       LCD_WriteReg
;;;892    		LCD_WriteReg(0x0052, 0x0000); // Vertical GRAM Start Address
001336  2100              MOVS     r1,#0
001338  2052              MOVS     r0,#0x52
00133a  f7fffffe          BL       LCD_WriteReg
;;;893    		LCD_WriteReg(0x0053, 0x013F); // Vertical GRAM Start Address
00133e  f240113f          MOV      r1,#0x13f
001342  2053              MOVS     r0,#0x53
001344  f7fffffe          BL       LCD_WriteReg
;;;894    		LCD_WriteReg(0x0060, 0x2700); // Gate Scan Line
001348  f44f511c          MOV      r1,#0x2700
00134c  2060              MOVS     r0,#0x60
00134e  f7fffffe          BL       LCD_WriteReg
;;;895    		LCD_WriteReg(0x0061, 0x0001); // NDL,VLE, REV 
001352  2101              MOVS     r1,#1
001354  2061              MOVS     r0,#0x61
001356  f7fffffe          BL       LCD_WriteReg
;;;896    		LCD_WriteReg(0x006A, 0x0000); // set scrolling line
00135a  2100              MOVS     r1,#0
00135c  206a              MOVS     r0,#0x6a
00135e  f7fffffe          BL       LCD_WriteReg
;;;897    		//-------------- Partial Display Control ---------//
;;;898    		LCD_WriteReg(0x0080, 0x0000);
001362  2100              MOVS     r1,#0
001364  2080              MOVS     r0,#0x80
001366  f7fffffe          BL       LCD_WriteReg
;;;899    		LCD_WriteReg(0x0081, 0x0000);
00136a  2100              MOVS     r1,#0
00136c  2081              MOVS     r0,#0x81
00136e  f7fffffe          BL       LCD_WriteReg
;;;900    		LCD_WriteReg(0x0082, 0x0000);
001372  2100              MOVS     r1,#0
001374  2082              MOVS     r0,#0x82
001376  f7fffffe          BL       LCD_WriteReg
;;;901    		LCD_WriteReg(0x0083, 0x0000);
00137a  2100              MOVS     r1,#0
00137c  2083              MOVS     r0,#0x83
00137e  f7fffffe          BL       LCD_WriteReg
;;;902    		LCD_WriteReg(0x0084, 0x0000);
001382  2100              MOVS     r1,#0
001384  2084              MOVS     r0,#0x84
001386  f7fffffe          BL       LCD_WriteReg
;;;903    		LCD_WriteReg(0x0085, 0x0000);
00138a  2100              MOVS     r1,#0
00138c  2085              MOVS     r0,#0x85
00138e  f7fffffe          BL       LCD_WriteReg
;;;904    		//-------------- Panel Control -------------------//
;;;905    		LCD_WriteReg(0x0090, 0x0010);
001392  2110              MOVS     r1,#0x10
001394  2090              MOVS     r0,#0x90
001396  f7fffffe          BL       LCD_WriteReg
;;;906    		LCD_WriteReg(0x0092, 0x0600);
00139a  f44f61c0          MOV      r1,#0x600
00139e  2092              MOVS     r0,#0x92
0013a0  f7fffffe          BL       LCD_WriteReg
;;;907    		LCD_WriteReg(0x0007, 0x0133); // 262K color and display ON
0013a4  f2401133          MOV      r1,#0x133
0013a8  2007              MOVS     r0,#7
0013aa  f7fffffe          BL       LCD_WriteReg
0013ae  e485              B        |L1.3260|
                  |L1.5040|
;;;908    	}else if(lcddev.id==0x5408)
0013b0  488a              LDR      r0,|L1.5596|
0013b2  8880              LDRH     r0,[r0,#4]  ; lcddev
0013b4  f5a041a8          SUB      r1,r0,#0x5400
0013b8  3908              SUBS     r1,r1,#8
0013ba  d17e              BNE      |L1.5306|
;;;909    	{
;;;910    		LCD_WriteReg(0x01,0x0100);								  
0013bc  f44f7180          MOV      r1,#0x100
0013c0  2001              MOVS     r0,#1
0013c2  f7fffffe          BL       LCD_WriteReg
;;;911    		LCD_WriteReg(0x02,0x0700);//LCD Driving Waveform Contral 
0013c6  f44f61e0          MOV      r1,#0x700
0013ca  2002              MOVS     r0,#2
0013cc  f7fffffe          BL       LCD_WriteReg
;;;912    		LCD_WriteReg(0x03,0x1030);//Entry Mode设置 	   
0013d0  f2410130          MOV      r1,#0x1030
0013d4  2003              MOVS     r0,#3
0013d6  f7fffffe          BL       LCD_WriteReg
;;;913    		//指针从左至右自上而下的自动增模式
;;;914    		//Normal Mode(Window Mode disable)
;;;915    		//RGB格式
;;;916    		//16位数据2次传输的8总线设置
;;;917    		LCD_WriteReg(0x04,0x0000); //Scalling Control register     
0013da  2100              MOVS     r1,#0
0013dc  2004              MOVS     r0,#4
0013de  f7fffffe          BL       LCD_WriteReg
;;;918    		LCD_WriteReg(0x08,0x0207); //Display Control 2 
0013e2  f2402107          MOV      r1,#0x207
0013e6  2008              MOVS     r0,#8
0013e8  f7fffffe          BL       LCD_WriteReg
;;;919    		LCD_WriteReg(0x09,0x0000); //Display Control 3	 
0013ec  2100              MOVS     r1,#0
0013ee  2009              MOVS     r0,#9
0013f0  f7fffffe          BL       LCD_WriteReg
;;;920    		LCD_WriteReg(0x0A,0x0000); //Frame Cycle Control	 
0013f4  2100              MOVS     r1,#0
0013f6  200a              MOVS     r0,#0xa
0013f8  f7fffffe          BL       LCD_WriteReg
;;;921    		LCD_WriteReg(0x0C,0x0000); //External Display Interface Control 1 
0013fc  2100              MOVS     r1,#0
0013fe  200c              MOVS     r0,#0xc
001400  f7fffffe          BL       LCD_WriteReg
;;;922    		LCD_WriteReg(0x0D,0x0000); //Frame Maker Position		 
001404  2100              MOVS     r1,#0
001406  200d              MOVS     r0,#0xd
001408  f7fffffe          BL       LCD_WriteReg
;;;923    		LCD_WriteReg(0x0F,0x0000); //External Display Interface Control 2 
00140c  2100              MOVS     r1,#0
00140e  200f              MOVS     r0,#0xf
001410  f7fffffe          BL       LCD_WriteReg
;;;924     		delay_ms(20);
001414  2014              MOVS     r0,#0x14
001416  f7fffffe          BL       delay_ms
;;;925    		//TFT 液晶彩色图像显示方法14
;;;926    		LCD_WriteReg(0x10,0x16B0); //0x14B0 //Power Control 1
00141a  f24161b0          MOV      r1,#0x16b0
00141e  2010              MOVS     r0,#0x10
001420  f7fffffe          BL       LCD_WriteReg
;;;927    		LCD_WriteReg(0x11,0x0001); //0x0007 //Power Control 2
001424  2101              MOVS     r1,#1
001426  2011              MOVS     r0,#0x11
001428  f7fffffe          BL       LCD_WriteReg
;;;928    		LCD_WriteReg(0x17,0x0001); //0x0000 //Power Control 3
00142c  2101              MOVS     r1,#1
00142e  2017              MOVS     r0,#0x17
001430  f7fffffe          BL       LCD_WriteReg
;;;929    		LCD_WriteReg(0x12,0x0138); //0x013B //Power Control 4
001434  f44f719c          MOV      r1,#0x138
001438  2012              MOVS     r0,#0x12
00143a  f7fffffe          BL       LCD_WriteReg
;;;930    		LCD_WriteReg(0x13,0x0800); //0x0800 //Power Control 5
00143e  f44f6100          MOV      r1,#0x800
001442  2013              MOVS     r0,#0x13
001444  f7fffffe          BL       LCD_WriteReg
;;;931    		LCD_WriteReg(0x29,0x0009); //NVM read data 2
001448  2109              MOVS     r1,#9
00144a  2029              MOVS     r0,#0x29
00144c  f7fffffe          BL       LCD_WriteReg
;;;932    		LCD_WriteReg(0x2a,0x0009); //NVM read data 3
001450  2109              MOVS     r1,#9
001452  202a              MOVS     r0,#0x2a
001454  f7fffffe          BL       LCD_WriteReg
;;;933    		LCD_WriteReg(0xa4,0x0000);	 
001458  2100              MOVS     r1,#0
00145a  20a4              MOVS     r0,#0xa4
00145c  f7fffffe          BL       LCD_WriteReg
;;;934    		LCD_WriteReg(0x50,0x0000); //设置操作窗口的X轴开始列
001460  2100              MOVS     r1,#0
001462  2050              MOVS     r0,#0x50
001464  f7fffffe          BL       LCD_WriteReg
;;;935    		LCD_WriteReg(0x51,0x00EF); //设置操作窗口的X轴结束列
001468  21ef              MOVS     r1,#0xef
00146a  2051              MOVS     r0,#0x51
00146c  f7fffffe          BL       LCD_WriteReg
;;;936    		LCD_WriteReg(0x52,0x0000); //设置操作窗口的Y轴开始行
001470  2100              MOVS     r1,#0
001472  2052              MOVS     r0,#0x52
001474  f7fffffe          BL       LCD_WriteReg
;;;937    		LCD_WriteReg(0x53,0x013F); //设置操作窗口的Y轴结束行
001478  f240113f          MOV      r1,#0x13f
00147c  2053              MOVS     r0,#0x53
00147e  f7fffffe          BL       LCD_WriteReg
;;;938    		LCD_WriteReg(0x60,0x2700); //Driver Output Control
001482  f44f511c          MOV      r1,#0x2700
001486  2060              MOVS     r0,#0x60
001488  f7fffffe          BL       LCD_WriteReg
;;;939    		//设置屏幕的点数以及扫描的起始行
;;;940    		LCD_WriteReg(0x61,0x0001); //Driver Output Control
00148c  2101              MOVS     r1,#1
00148e  2061              MOVS     r0,#0x61
001490  f7fffffe          BL       LCD_WriteReg
;;;941    		LCD_WriteReg(0x6A,0x0000); //Vertical Scroll Control
001494  2100              MOVS     r1,#0
001496  206a              MOVS     r0,#0x6a
001498  f7fffffe          BL       LCD_WriteReg
;;;942    		LCD_WriteReg(0x80,0x0000); //Display Position C Partial Display 1
00149c  2100              MOVS     r1,#0
00149e  2080              MOVS     r0,#0x80
0014a0  f7fffffe          BL       LCD_WriteReg
;;;943    		LCD_WriteReg(0x81,0x0000); //RAM Address Start C Partial Display 1
0014a4  2100              MOVS     r1,#0
0014a6  2081              MOVS     r0,#0x81
0014a8  f7fffffe          BL       LCD_WriteReg
;;;944    		LCD_WriteReg(0x82,0x0000); //RAM address End - Partial Display 1
0014ac  2100              MOVS     r1,#0
0014ae  2082              MOVS     r0,#0x82
0014b0  f7fffffe          BL       LCD_WriteReg
;;;945    		LCD_WriteReg(0x83,0x0000); //Display Position C Partial Display 2
0014b4  2100              MOVS     r1,#0
0014b6  2083              MOVS     r0,#0x83
0014b8  e000              B        |L1.5308|
                  |L1.5306|
0014ba  e023              B        |L1.5380|
                  |L1.5308|
0014bc  f7fffffe          BL       LCD_WriteReg
;;;946    		LCD_WriteReg(0x84,0x0000); //RAM Address Start C Partial Display 2
0014c0  2100              MOVS     r1,#0
0014c2  2084              MOVS     r0,#0x84
0014c4  f7fffffe          BL       LCD_WriteReg
;;;947    		LCD_WriteReg(0x85,0x0000); //RAM address End C Partail Display2
0014c8  2100              MOVS     r1,#0
0014ca  2085              MOVS     r0,#0x85
0014cc  f7fffffe          BL       LCD_WriteReg
;;;948    		LCD_WriteReg(0x90,0x0013); //Frame Cycle Control
0014d0  2113              MOVS     r1,#0x13
0014d2  2090              MOVS     r0,#0x90
0014d4  f7fffffe          BL       LCD_WriteReg
;;;949    		LCD_WriteReg(0x92,0x0000);  //Panel Interface Control 2
0014d8  2100              MOVS     r1,#0
0014da  2092              MOVS     r0,#0x92
0014dc  f7fffffe          BL       LCD_WriteReg
;;;950    		LCD_WriteReg(0x93,0x0003); //Panel Interface control 3
0014e0  2103              MOVS     r1,#3
0014e2  2093              MOVS     r0,#0x93
0014e4  f7fffffe          BL       LCD_WriteReg
;;;951    		LCD_WriteReg(0x95,0x0110);  //Frame Cycle Control
0014e8  f44f7188          MOV      r1,#0x110
0014ec  2095              MOVS     r0,#0x95
0014ee  f7fffffe          BL       LCD_WriteReg
;;;952    		LCD_WriteReg(0x07,0x0173);		 
0014f2  f2401173          MOV      r1,#0x173
0014f6  2007              MOVS     r0,#7
0014f8  f7fffffe          BL       LCD_WriteReg
;;;953    		delay_ms(50);
0014fc  2032              MOVS     r0,#0x32
0014fe  f7fffffe          BL       delay_ms
001502  e4b9              B        |L1.3704|
                  |L1.5380|
;;;954    	}	
;;;955    	else if(lcddev.id==0x1505)//OK
001504  4835              LDR      r0,|L1.5596|
001506  8880              LDRH     r0,[r0,#4]  ; lcddev
001508  f5a051a8          SUB      r1,r0,#0x1500
00150c  3905              SUBS     r1,#5
00150e  d167              BNE      |L1.5600|
;;;956    	{
;;;957    		// second release on 3/5  ,luminance is acceptable,water wave appear during camera preview
;;;958            LCD_WriteReg(0x0007,0x0000);
001510  2007              MOVS     r0,#7
001512  f7fffffe          BL       LCD_WriteReg
;;;959            delay_ms(50); 
001516  2032              MOVS     r0,#0x32
001518  f7fffffe          BL       delay_ms
;;;960            LCD_WriteReg(0x0012,0x011C);//0x011A   why need to set several times?
00151c  f44f718e          MOV      r1,#0x11c
001520  2012              MOVS     r0,#0x12
001522  f7fffffe          BL       LCD_WriteReg
;;;961            LCD_WriteReg(0x00A4,0x0001);//NVM	 
001526  2101              MOVS     r1,#1
001528  20a4              MOVS     r0,#0xa4
00152a  f7fffffe          BL       LCD_WriteReg
;;;962            LCD_WriteReg(0x0008,0x000F);
00152e  210f              MOVS     r1,#0xf
001530  2008              MOVS     r0,#8
001532  f7fffffe          BL       LCD_WriteReg
;;;963            LCD_WriteReg(0x000A,0x0008);
001536  2108              MOVS     r1,#8
001538  200a              MOVS     r0,#0xa
00153a  f7fffffe          BL       LCD_WriteReg
;;;964            LCD_WriteReg(0x000D,0x0008);	    
00153e  2108              MOVS     r1,#8
001540  200d              MOVS     r0,#0xd
001542  f7fffffe          BL       LCD_WriteReg
;;;965      		//伽马校正
;;;966            LCD_WriteReg(0x0030,0x0707);
001546  f2407107          MOV      r1,#0x707
00154a  2030              MOVS     r0,#0x30
00154c  f7fffffe          BL       LCD_WriteReg
;;;967            LCD_WriteReg(0x0031,0x0007); //0x0707
001550  2107              MOVS     r1,#7
001552  2031              MOVS     r0,#0x31
001554  f7fffffe          BL       LCD_WriteReg
;;;968            LCD_WriteReg(0x0032,0x0603); 
001558  f2406103          MOV      r1,#0x603
00155c  2032              MOVS     r0,#0x32
00155e  f7fffffe          BL       LCD_WriteReg
;;;969            LCD_WriteReg(0x0033,0x0700); 
001562  f44f61e0          MOV      r1,#0x700
001566  2033              MOVS     r0,#0x33
001568  f7fffffe          BL       LCD_WriteReg
;;;970            LCD_WriteReg(0x0034,0x0202); 
00156c  f2402102          MOV      r1,#0x202
001570  2034              MOVS     r0,#0x34
001572  f7fffffe          BL       LCD_WriteReg
;;;971            LCD_WriteReg(0x0035,0x0002); //?0x0606
001576  2102              MOVS     r1,#2
001578  2035              MOVS     r0,#0x35
00157a  f7fffffe          BL       LCD_WriteReg
;;;972            LCD_WriteReg(0x0036,0x1F0F);
00157e  f641710f          MOV      r1,#0x1f0f
001582  2036              MOVS     r0,#0x36
001584  f7fffffe          BL       LCD_WriteReg
;;;973            LCD_WriteReg(0x0037,0x0707); //0x0f0f  0x0105
001588  f2407107          MOV      r1,#0x707
00158c  2037              MOVS     r0,#0x37
00158e  f7fffffe          BL       LCD_WriteReg
;;;974            LCD_WriteReg(0x0038,0x0000); 
001592  2100              MOVS     r1,#0
001594  2038              MOVS     r0,#0x38
001596  f7fffffe          BL       LCD_WriteReg
;;;975            LCD_WriteReg(0x0039,0x0000); 
00159a  2100              MOVS     r1,#0
00159c  2039              MOVS     r0,#0x39
00159e  f7fffffe          BL       LCD_WriteReg
;;;976            LCD_WriteReg(0x003A,0x0707); 
0015a2  f2407107          MOV      r1,#0x707
0015a6  203a              MOVS     r0,#0x3a
0015a8  f7fffffe          BL       LCD_WriteReg
;;;977            LCD_WriteReg(0x003B,0x0000); //0x0303
0015ac  2100              MOVS     r1,#0
0015ae  203b              MOVS     r0,#0x3b
0015b0  f7fffffe          BL       LCD_WriteReg
;;;978            LCD_WriteReg(0x003C,0x0007); //?0x0707
0015b4  2107              MOVS     r1,#7
0015b6  203c              MOVS     r0,#0x3c
0015b8  f7fffffe          BL       LCD_WriteReg
;;;979            LCD_WriteReg(0x003D,0x0000); //0x1313//0x1f08
0015bc  2100              MOVS     r1,#0
0015be  203d              MOVS     r0,#0x3d
0015c0  f7fffffe          BL       LCD_WriteReg
;;;980            delay_ms(50); 
0015c4  2032              MOVS     r0,#0x32
0015c6  f7fffffe          BL       delay_ms
;;;981            LCD_WriteReg(0x0007,0x0001);
0015ca  2101              MOVS     r1,#1
0015cc  2007              MOVS     r0,#7
0015ce  f7fffffe          BL       LCD_WriteReg
;;;982            LCD_WriteReg(0x0017,0x0001);//开启电源
0015d2  2101              MOVS     r1,#1
0015d4  2017              MOVS     r0,#0x17
0015d6  f7fffffe          BL       LCD_WriteReg
;;;983            delay_ms(50); 
0015da  e002              B        |L1.5602|
                  |L1.5596|
                          DCD      lcddev
                  |L1.5600|
0015e0  e0ac              B        |L1.5948|
                  |L1.5602|
0015e2  2032              MOVS     r0,#0x32
0015e4  f7fffffe          BL       delay_ms
;;;984      		//电源配置
;;;985            LCD_WriteReg(0x0010,0x17A0); 
0015e8  f44f51bd          MOV      r1,#0x17a0
0015ec  2010              MOVS     r0,#0x10
0015ee  f7fffffe          BL       LCD_WriteReg
;;;986            LCD_WriteReg(0x0011,0x0217);//reference voltage VC[2:0]   Vciout = 1.00*Vcivl
0015f2  f2402117          MOV      r1,#0x217
0015f6  2011              MOVS     r0,#0x11
0015f8  f7fffffe          BL       LCD_WriteReg
;;;987            LCD_WriteReg(0x0012,0x011E);//0x011c  //Vreg1out = Vcilvl*1.80   is it the same as Vgama1out ?
0015fc  f44f718f          MOV      r1,#0x11e
001600  2012              MOVS     r0,#0x12
001602  f7fffffe          BL       LCD_WriteReg
;;;988            LCD_WriteReg(0x0013,0x0F00);//VDV[4:0]-->VCOM Amplitude VcomL = VcomH - Vcom Ampl
001606  f44f6170          MOV      r1,#0xf00
00160a  2013              MOVS     r0,#0x13
00160c  f7fffffe          BL       LCD_WriteReg
;;;989            LCD_WriteReg(0x002A,0x0000);  
001610  2100              MOVS     r1,#0
001612  202a              MOVS     r0,#0x2a
001614  f7fffffe          BL       LCD_WriteReg
;;;990            LCD_WriteReg(0x0029,0x000A);//0x0001F  Vcomh = VCM1[4:0]*Vreg1out    gate source voltage??
001618  210a              MOVS     r1,#0xa
00161a  2029              MOVS     r0,#0x29
00161c  f7fffffe          BL       LCD_WriteReg
;;;991            LCD_WriteReg(0x0012,0x013E);// 0x013C  power supply on
001620  f44f719f          MOV      r1,#0x13e
001624  2012              MOVS     r0,#0x12
001626  f7fffffe          BL       LCD_WriteReg
;;;992            //Coordinates Control//
;;;993            LCD_WriteReg(0x0050,0x0000);//0x0e00
00162a  2100              MOVS     r1,#0
00162c  2050              MOVS     r0,#0x50
00162e  f7fffffe          BL       LCD_WriteReg
;;;994            LCD_WriteReg(0x0051,0x00EF); 
001632  21ef              MOVS     r1,#0xef
001634  2051              MOVS     r0,#0x51
001636  f7fffffe          BL       LCD_WriteReg
;;;995            LCD_WriteReg(0x0052,0x0000); 
00163a  2100              MOVS     r1,#0
00163c  2052              MOVS     r0,#0x52
00163e  f7fffffe          BL       LCD_WriteReg
;;;996            LCD_WriteReg(0x0053,0x013F); 
001642  f240113f          MOV      r1,#0x13f
001646  2053              MOVS     r0,#0x53
001648  f7fffffe          BL       LCD_WriteReg
;;;997        	//Pannel Image Control//
;;;998            LCD_WriteReg(0x0060,0x2700); 
00164c  f44f511c          MOV      r1,#0x2700
001650  2060              MOVS     r0,#0x60
001652  f7fffffe          BL       LCD_WriteReg
;;;999            LCD_WriteReg(0x0061,0x0001); 
001656  2101              MOVS     r1,#1
001658  2061              MOVS     r0,#0x61
00165a  f7fffffe          BL       LCD_WriteReg
;;;1000           LCD_WriteReg(0x006A,0x0000); 
00165e  2100              MOVS     r1,#0
001660  206a              MOVS     r0,#0x6a
001662  f7fffffe          BL       LCD_WriteReg
;;;1001           LCD_WriteReg(0x0080,0x0000); 
001666  2100              MOVS     r1,#0
001668  2080              MOVS     r0,#0x80
00166a  f7fffffe          BL       LCD_WriteReg
;;;1002       	//Partial Image Control//
;;;1003           LCD_WriteReg(0x0081,0x0000); 
00166e  2100              MOVS     r1,#0
001670  2081              MOVS     r0,#0x81
001672  f7fffffe          BL       LCD_WriteReg
;;;1004           LCD_WriteReg(0x0082,0x0000); 
001676  2100              MOVS     r1,#0
001678  2082              MOVS     r0,#0x82
00167a  f7fffffe          BL       LCD_WriteReg
;;;1005           LCD_WriteReg(0x0083,0x0000); 
00167e  2100              MOVS     r1,#0
001680  2083              MOVS     r0,#0x83
001682  f7fffffe          BL       LCD_WriteReg
;;;1006           LCD_WriteReg(0x0084,0x0000); 
001686  2100              MOVS     r1,#0
001688  2084              MOVS     r0,#0x84
00168a  f7fffffe          BL       LCD_WriteReg
;;;1007           LCD_WriteReg(0x0085,0x0000); 
00168e  2100              MOVS     r1,#0
001690  2085              MOVS     r0,#0x85
001692  f7fffffe          BL       LCD_WriteReg
;;;1008     		//Panel Interface Control//
;;;1009           LCD_WriteReg(0x0090,0x0013);//0x0010 frenqucy
001696  2113              MOVS     r1,#0x13
001698  2090              MOVS     r0,#0x90
00169a  f7fffffe          BL       LCD_WriteReg
;;;1010           LCD_WriteReg(0x0092,0x0300); 
00169e  f44f7140          MOV      r1,#0x300
0016a2  2092              MOVS     r0,#0x92
0016a4  f7fffffe          BL       LCD_WriteReg
;;;1011           LCD_WriteReg(0x0093,0x0005); 
0016a8  2105              MOVS     r1,#5
0016aa  2093              MOVS     r0,#0x93
0016ac  f7fffffe          BL       LCD_WriteReg
;;;1012           LCD_WriteReg(0x0095,0x0000); 
0016b0  2100              MOVS     r1,#0
0016b2  2095              MOVS     r0,#0x95
0016b4  f7fffffe          BL       LCD_WriteReg
;;;1013           LCD_WriteReg(0x0097,0x0000); 
0016b8  2100              MOVS     r1,#0
0016ba  2097              MOVS     r0,#0x97
0016bc  f7fffffe          BL       LCD_WriteReg
;;;1014           LCD_WriteReg(0x0098,0x0000); 
0016c0  2100              MOVS     r1,#0
0016c2  2098              MOVS     r0,#0x98
0016c4  f7fffffe          BL       LCD_WriteReg
;;;1015     
;;;1016           LCD_WriteReg(0x0001,0x0100); 
0016c8  f44f7180          MOV      r1,#0x100
0016cc  2001              MOVS     r0,#1
0016ce  f7fffffe          BL       LCD_WriteReg
;;;1017           LCD_WriteReg(0x0002,0x0700); 
0016d2  f44f61e0          MOV      r1,#0x700
0016d6  2002              MOVS     r0,#2
0016d8  f7fffffe          BL       LCD_WriteReg
;;;1018           LCD_WriteReg(0x0003,0x1038);//扫描方向 上->下  左->右 
0016dc  f2410138          MOV      r1,#0x1038
0016e0  2003              MOVS     r0,#3
0016e2  f7fffffe          BL       LCD_WriteReg
;;;1019           LCD_WriteReg(0x0004,0x0000); 
0016e6  2100              MOVS     r1,#0
0016e8  2004              MOVS     r0,#4
0016ea  f7fffffe          BL       LCD_WriteReg
;;;1020           LCD_WriteReg(0x000C,0x0000); 
0016ee  2100              MOVS     r1,#0
0016f0  200c              MOVS     r0,#0xc
0016f2  f7fffffe          BL       LCD_WriteReg
;;;1021           LCD_WriteReg(0x000F,0x0000); 
0016f6  2100              MOVS     r1,#0
0016f8  200f              MOVS     r0,#0xf
0016fa  f7fffffe          BL       LCD_WriteReg
;;;1022           LCD_WriteReg(0x0020,0x0000); 
0016fe  2100              MOVS     r1,#0
001700  2020              MOVS     r0,#0x20
001702  f7fffffe          BL       LCD_WriteReg
;;;1023           LCD_WriteReg(0x0021,0x0000); 
001706  2100              MOVS     r1,#0
001708  2021              MOVS     r0,#0x21
00170a  f7fffffe          BL       LCD_WriteReg
;;;1024           LCD_WriteReg(0x0007,0x0021); 
00170e  2121              MOVS     r1,#0x21
001710  2007              MOVS     r0,#7
001712  f7fffffe          BL       LCD_WriteReg
;;;1025           delay_ms(20);
001716  2014              MOVS     r0,#0x14
001718  f7fffffe          BL       delay_ms
;;;1026           LCD_WriteReg(0x0007,0x0061); 
00171c  2161              MOVS     r1,#0x61
00171e  2007              MOVS     r0,#7
001720  f7fffffe          BL       LCD_WriteReg
;;;1027           delay_ms(20);
001724  2014              MOVS     r0,#0x14
001726  f7fffffe          BL       delay_ms
;;;1028           LCD_WriteReg(0x0007,0x0173); 
00172a  f2401173          MOV      r1,#0x173
00172e  2007              MOVS     r0,#7
001730  f7fffffe          BL       LCD_WriteReg
;;;1029           delay_ms(20);
001734  2014              MOVS     r0,#0x14
001736  f7fffffe          BL       delay_ms
00173a  e498              B        |L1.4206|
                  |L1.5948|
;;;1030   	}else if(lcddev.id==0xB505)
00173c  48ff              LDR      r0,|L1.6972|
00173e  8880              LDRH     r0,[r0,#4]  ; lcddev
001740  f5a04135          SUB      r1,r0,#0xb500
001744  3905              SUBS     r1,#5
001746  d17d              BNE      |L1.6212|
;;;1031   	{
;;;1032   		LCD_WriteReg(0x0000,0x0000);
001748  4608              MOV      r0,r1
00174a  f7fffffe          BL       LCD_WriteReg
;;;1033   		LCD_WriteReg(0x0000,0x0000);
00174e  2100              MOVS     r1,#0
001750  4608              MOV      r0,r1
001752  f7fffffe          BL       LCD_WriteReg
;;;1034   		LCD_WriteReg(0x0000,0x0000);
001756  2100              MOVS     r1,#0
001758  4608              MOV      r0,r1
00175a  f7fffffe          BL       LCD_WriteReg
;;;1035   		LCD_WriteReg(0x0000,0x0000);
00175e  2100              MOVS     r1,#0
001760  4608              MOV      r0,r1
001762  f7fffffe          BL       LCD_WriteReg
;;;1036   		
;;;1037   		LCD_WriteReg(0x00a4,0x0001);
001766  2101              MOVS     r1,#1
001768  20a4              MOVS     r0,#0xa4
00176a  f7fffffe          BL       LCD_WriteReg
;;;1038   		delay_ms(20);		  
00176e  2014              MOVS     r0,#0x14
001770  f7fffffe          BL       delay_ms
;;;1039   		LCD_WriteReg(0x0060,0x2700);
001774  f44f511c          MOV      r1,#0x2700
001778  2060              MOVS     r0,#0x60
00177a  f7fffffe          BL       LCD_WriteReg
;;;1040   		LCD_WriteReg(0x0008,0x0202);
00177e  f2402102          MOV      r1,#0x202
001782  2008              MOVS     r0,#8
001784  f7fffffe          BL       LCD_WriteReg
;;;1041   		
;;;1042   		LCD_WriteReg(0x0030,0x0214);
001788  f44f7105          MOV      r1,#0x214
00178c  2030              MOVS     r0,#0x30
00178e  f7fffffe          BL       LCD_WriteReg
;;;1043   		LCD_WriteReg(0x0031,0x3715);
001792  f2437115          MOV      r1,#0x3715
001796  2031              MOVS     r0,#0x31
001798  f7fffffe          BL       LCD_WriteReg
;;;1044   		LCD_WriteReg(0x0032,0x0604);
00179c  f2406104          MOV      r1,#0x604
0017a0  2032              MOVS     r0,#0x32
0017a2  f7fffffe          BL       LCD_WriteReg
;;;1045   		LCD_WriteReg(0x0033,0x0e16);
0017a6  f6406116          MOV      r1,#0xe16
0017aa  2033              MOVS     r0,#0x33
0017ac  f7fffffe          BL       LCD_WriteReg
;;;1046   		LCD_WriteReg(0x0034,0x2211);
0017b0  f2422111          MOV      r1,#0x2211
0017b4  2034              MOVS     r0,#0x34
0017b6  f7fffffe          BL       LCD_WriteReg
;;;1047   		LCD_WriteReg(0x0035,0x1500);
0017ba  f44f51a8          MOV      r1,#0x1500
0017be  2035              MOVS     r0,#0x35
0017c0  f7fffffe          BL       LCD_WriteReg
;;;1048   		LCD_WriteReg(0x0036,0x8507);
0017c4  f2485107          MOV      r1,#0x8507
0017c8  2036              MOVS     r0,#0x36
0017ca  f7fffffe          BL       LCD_WriteReg
;;;1049   		LCD_WriteReg(0x0037,0x1407);
0017ce  f2414107          MOV      r1,#0x1407
0017d2  2037              MOVS     r0,#0x37
0017d4  f7fffffe          BL       LCD_WriteReg
;;;1050   		LCD_WriteReg(0x0038,0x1403);
0017d8  f2414103          MOV      r1,#0x1403
0017dc  2038              MOVS     r0,#0x38
0017de  f7fffffe          BL       LCD_WriteReg
;;;1051   		LCD_WriteReg(0x0039,0x0020);
0017e2  2120              MOVS     r1,#0x20
0017e4  2039              MOVS     r0,#0x39
0017e6  f7fffffe          BL       LCD_WriteReg
;;;1052   		
;;;1053   		LCD_WriteReg(0x0090,0x001a);
0017ea  211a              MOVS     r1,#0x1a
0017ec  2090              MOVS     r0,#0x90
0017ee  f7fffffe          BL       LCD_WriteReg
;;;1054   		LCD_WriteReg(0x0010,0x0000);
0017f2  2100              MOVS     r1,#0
0017f4  2010              MOVS     r0,#0x10
0017f6  f7fffffe          BL       LCD_WriteReg
;;;1055   		LCD_WriteReg(0x0011,0x0007);
0017fa  2107              MOVS     r1,#7
0017fc  2011              MOVS     r0,#0x11
0017fe  f7fffffe          BL       LCD_WriteReg
;;;1056   		LCD_WriteReg(0x0012,0x0000);
001802  2100              MOVS     r1,#0
001804  2012              MOVS     r0,#0x12
001806  f7fffffe          BL       LCD_WriteReg
;;;1057   		LCD_WriteReg(0x0013,0x0000);
00180a  2100              MOVS     r1,#0
00180c  2013              MOVS     r0,#0x13
00180e  f7fffffe          BL       LCD_WriteReg
;;;1058   		delay_ms(20);
001812  2014              MOVS     r0,#0x14
001814  f7fffffe          BL       delay_ms
;;;1059   		
;;;1060   		LCD_WriteReg(0x0010,0x0730);
001818  f44f61e6          MOV      r1,#0x730
00181c  2010              MOVS     r0,#0x10
00181e  f7fffffe          BL       LCD_WriteReg
;;;1061   		LCD_WriteReg(0x0011,0x0137);
001822  f2401137          MOV      r1,#0x137
001826  2011              MOVS     r0,#0x11
001828  f7fffffe          BL       LCD_WriteReg
;;;1062   		delay_ms(20);
00182c  2014              MOVS     r0,#0x14
00182e  f7fffffe          BL       delay_ms
;;;1063   		
;;;1064   		LCD_WriteReg(0x0012,0x01b8);
001832  f44f71dc          MOV      r1,#0x1b8
001836  2012              MOVS     r0,#0x12
001838  f7fffffe          BL       LCD_WriteReg
;;;1065   		delay_ms(20);
00183c  2014              MOVS     r0,#0x14
00183e  f7fffffe          BL       delay_ms
;;;1066   		
;;;1067   		LCD_WriteReg(0x0013,0x0f00);
001842  e000              B        |L1.6214|
                  |L1.6212|
001844  e083              B        |L1.6478|
                  |L1.6214|
001846  f44f6170          MOV      r1,#0xf00
00184a  2013              MOVS     r0,#0x13
00184c  f7fffffe          BL       LCD_WriteReg
;;;1068   		LCD_WriteReg(0x002a,0x0080);
001850  2180              MOVS     r1,#0x80
001852  202a              MOVS     r0,#0x2a
001854  f7fffffe          BL       LCD_WriteReg
;;;1069   		LCD_WriteReg(0x0029,0x0048);
001858  2148              MOVS     r1,#0x48
00185a  2029              MOVS     r0,#0x29
00185c  f7fffffe          BL       LCD_WriteReg
;;;1070   		delay_ms(20);
001860  2014              MOVS     r0,#0x14
001862  f7fffffe          BL       delay_ms
;;;1071   		
;;;1072   		LCD_WriteReg(0x0001,0x0100);
001866  f44f7180          MOV      r1,#0x100
00186a  2001              MOVS     r0,#1
00186c  f7fffffe          BL       LCD_WriteReg
;;;1073   		LCD_WriteReg(0x0002,0x0700);
001870  f44f61e0          MOV      r1,#0x700
001874  2002              MOVS     r0,#2
001876  f7fffffe          BL       LCD_WriteReg
;;;1074           LCD_WriteReg(0x0003,0x1038);//扫描方向 上->下  左->右 
00187a  f2410138          MOV      r1,#0x1038
00187e  2003              MOVS     r0,#3
001880  f7fffffe          BL       LCD_WriteReg
;;;1075   		LCD_WriteReg(0x0008,0x0202);
001884  f2402102          MOV      r1,#0x202
001888  2008              MOVS     r0,#8
00188a  f7fffffe          BL       LCD_WriteReg
;;;1076   		LCD_WriteReg(0x000a,0x0000);
00188e  2100              MOVS     r1,#0
001890  200a              MOVS     r0,#0xa
001892  f7fffffe          BL       LCD_WriteReg
;;;1077   		LCD_WriteReg(0x000c,0x0000);
001896  2100              MOVS     r1,#0
001898  200c              MOVS     r0,#0xc
00189a  f7fffffe          BL       LCD_WriteReg
;;;1078   		LCD_WriteReg(0x000d,0x0000);
00189e  2100              MOVS     r1,#0
0018a0  200d              MOVS     r0,#0xd
0018a2  f7fffffe          BL       LCD_WriteReg
;;;1079   		LCD_WriteReg(0x000e,0x0030);
0018a6  2130              MOVS     r1,#0x30
0018a8  200e              MOVS     r0,#0xe
0018aa  f7fffffe          BL       LCD_WriteReg
;;;1080   		LCD_WriteReg(0x0050,0x0000);
0018ae  2100              MOVS     r1,#0
0018b0  2050              MOVS     r0,#0x50
0018b2  f7fffffe          BL       LCD_WriteReg
;;;1081   		LCD_WriteReg(0x0051,0x00ef);
0018b6  21ef              MOVS     r1,#0xef
0018b8  2051              MOVS     r0,#0x51
0018ba  f7fffffe          BL       LCD_WriteReg
;;;1082   		LCD_WriteReg(0x0052,0x0000);
0018be  2100              MOVS     r1,#0
0018c0  2052              MOVS     r0,#0x52
0018c2  f7fffffe          BL       LCD_WriteReg
;;;1083   		LCD_WriteReg(0x0053,0x013f);
0018c6  f240113f          MOV      r1,#0x13f
0018ca  2053              MOVS     r0,#0x53
0018cc  f7fffffe          BL       LCD_WriteReg
;;;1084   		LCD_WriteReg(0x0060,0x2700);
0018d0  f44f511c          MOV      r1,#0x2700
0018d4  2060              MOVS     r0,#0x60
0018d6  f7fffffe          BL       LCD_WriteReg
;;;1085   		LCD_WriteReg(0x0061,0x0001);
0018da  2101              MOVS     r1,#1
0018dc  2061              MOVS     r0,#0x61
0018de  f7fffffe          BL       LCD_WriteReg
;;;1086   		LCD_WriteReg(0x006a,0x0000);
0018e2  2100              MOVS     r1,#0
0018e4  206a              MOVS     r0,#0x6a
0018e6  f7fffffe          BL       LCD_WriteReg
;;;1087   		//LCD_WriteReg(0x0080,0x0000);
;;;1088   		//LCD_WriteReg(0x0081,0x0000);
;;;1089   		LCD_WriteReg(0x0090,0X0011);
0018ea  2111              MOVS     r1,#0x11
0018ec  2090              MOVS     r0,#0x90
0018ee  f7fffffe          BL       LCD_WriteReg
;;;1090   		LCD_WriteReg(0x0092,0x0600);
0018f2  f44f61c0          MOV      r1,#0x600
0018f6  2092              MOVS     r0,#0x92
0018f8  f7fffffe          BL       LCD_WriteReg
;;;1091   		LCD_WriteReg(0x0093,0x0402);
0018fc  f2404102          MOV      r1,#0x402
001900  2093              MOVS     r0,#0x93
001902  f7fffffe          BL       LCD_WriteReg
;;;1092   		LCD_WriteReg(0x0094,0x0002);
001906  2102              MOVS     r1,#2
001908  2094              MOVS     r0,#0x94
00190a  f7fffffe          BL       LCD_WriteReg
;;;1093   		delay_ms(20);
00190e  2014              MOVS     r0,#0x14
001910  f7fffffe          BL       delay_ms
;;;1094   		
;;;1095   		LCD_WriteReg(0x0007,0x0001);
001914  2101              MOVS     r1,#1
001916  2007              MOVS     r0,#7
001918  f7fffffe          BL       LCD_WriteReg
;;;1096   		delay_ms(20);
00191c  2014              MOVS     r0,#0x14
00191e  f7fffffe          BL       delay_ms
;;;1097   		LCD_WriteReg(0x0007,0x0061);
001922  2161              MOVS     r1,#0x61
001924  2007              MOVS     r0,#7
001926  f7fffffe          BL       LCD_WriteReg
;;;1098   		LCD_WriteReg(0x0007,0x0173);
00192a  f2401173          MOV      r1,#0x173
00192e  2007              MOVS     r0,#7
001930  f7fffffe          BL       LCD_WriteReg
;;;1099   		
;;;1100   		LCD_WriteReg(0x0020,0x0000);
001934  2100              MOVS     r1,#0
001936  2020              MOVS     r0,#0x20
001938  f7fffffe          BL       LCD_WriteReg
;;;1101   		LCD_WriteReg(0x0021,0x0000);	  
00193c  2100              MOVS     r1,#0
00193e  2021              MOVS     r0,#0x21
001940  f7fffffe          BL       LCD_WriteReg
;;;1102   		LCD_WriteReg(0x00,0x22);  
001944  2122              MOVS     r1,#0x22
001946  2000              MOVS     r0,#0
001948  f7fffffe          BL       LCD_WriteReg
00194c  e313              B        |L1.8054|
                  |L1.6478|
;;;1103   	}else if(lcddev.id==0xC505)
00194e  487b              LDR      r0,|L1.6972|
001950  8880              LDRH     r0,[r0,#4]  ; lcddev
001952  f5a04145          SUB      r1,r0,#0xc500
001956  3905              SUBS     r1,#5
001958  d17d              BNE      |L1.6742|
;;;1104   	{
;;;1105   		LCD_WriteReg(0x0000,0x0000);
00195a  4608              MOV      r0,r1
00195c  f7fffffe          BL       LCD_WriteReg
;;;1106   		LCD_WriteReg(0x0000,0x0000);
001960  2100              MOVS     r1,#0
001962  4608              MOV      r0,r1
001964  f7fffffe          BL       LCD_WriteReg
;;;1107   		delay_ms(20);		  
001968  2014              MOVS     r0,#0x14
00196a  f7fffffe          BL       delay_ms
;;;1108   		LCD_WriteReg(0x0000,0x0000);
00196e  2100              MOVS     r1,#0
001970  4608              MOV      r0,r1
001972  f7fffffe          BL       LCD_WriteReg
;;;1109   		LCD_WriteReg(0x0000,0x0000);
001976  2100              MOVS     r1,#0
001978  4608              MOV      r0,r1
00197a  f7fffffe          BL       LCD_WriteReg
;;;1110   		LCD_WriteReg(0x0000,0x0000);
00197e  2100              MOVS     r1,#0
001980  4608              MOV      r0,r1
001982  f7fffffe          BL       LCD_WriteReg
;;;1111   		LCD_WriteReg(0x0000,0x0000);
001986  2100              MOVS     r1,#0
001988  4608              MOV      r0,r1
00198a  f7fffffe          BL       LCD_WriteReg
;;;1112    		LCD_WriteReg(0x00a4,0x0001);
00198e  2101              MOVS     r1,#1
001990  20a4              MOVS     r0,#0xa4
001992  f7fffffe          BL       LCD_WriteReg
;;;1113   		delay_ms(20);		  
001996  2014              MOVS     r0,#0x14
001998  f7fffffe          BL       delay_ms
;;;1114   		LCD_WriteReg(0x0060,0x2700);
00199c  f44f511c          MOV      r1,#0x2700
0019a0  2060              MOVS     r0,#0x60
0019a2  f7fffffe          BL       LCD_WriteReg
;;;1115   		LCD_WriteReg(0x0008,0x0806);
0019a6  f6400106          MOV      r1,#0x806
0019aa  2008              MOVS     r0,#8
0019ac  f7fffffe          BL       LCD_WriteReg
;;;1116   		
;;;1117   		LCD_WriteReg(0x0030,0x0703);//gamma setting
0019b0  f2407103          MOV      r1,#0x703
0019b4  2030              MOVS     r0,#0x30
0019b6  f7fffffe          BL       LCD_WriteReg
;;;1118   		LCD_WriteReg(0x0031,0x0001);
0019ba  2101              MOVS     r1,#1
0019bc  2031              MOVS     r0,#0x31
0019be  f7fffffe          BL       LCD_WriteReg
;;;1119   		LCD_WriteReg(0x0032,0x0004);
0019c2  2104              MOVS     r1,#4
0019c4  2032              MOVS     r0,#0x32
0019c6  f7fffffe          BL       LCD_WriteReg
;;;1120   		LCD_WriteReg(0x0033,0x0102);
0019ca  f44f7181          MOV      r1,#0x102
0019ce  2033              MOVS     r0,#0x33
0019d0  f7fffffe          BL       LCD_WriteReg
;;;1121   		LCD_WriteReg(0x0034,0x0300);
0019d4  f44f7140          MOV      r1,#0x300
0019d8  2034              MOVS     r0,#0x34
0019da  f7fffffe          BL       LCD_WriteReg
;;;1122   		LCD_WriteReg(0x0035,0x0103);
0019de  f2401103          MOV      r1,#0x103
0019e2  2035              MOVS     r0,#0x35
0019e4  f7fffffe          BL       LCD_WriteReg
;;;1123   		LCD_WriteReg(0x0036,0x001F);
0019e8  211f              MOVS     r1,#0x1f
0019ea  2036              MOVS     r0,#0x36
0019ec  f7fffffe          BL       LCD_WriteReg
;;;1124   		LCD_WriteReg(0x0037,0x0703);
0019f0  f2407103          MOV      r1,#0x703
0019f4  2037              MOVS     r0,#0x37
0019f6  f7fffffe          BL       LCD_WriteReg
;;;1125   		LCD_WriteReg(0x0038,0x0001);
0019fa  2101              MOVS     r1,#1
0019fc  2038              MOVS     r0,#0x38
0019fe  f7fffffe          BL       LCD_WriteReg
;;;1126   		LCD_WriteReg(0x0039,0x0004);
001a02  2104              MOVS     r1,#4
001a04  2039              MOVS     r0,#0x39
001a06  f7fffffe          BL       LCD_WriteReg
;;;1127   		
;;;1128   		
;;;1129   		
;;;1130   		LCD_WriteReg(0x0090, 0x0015);	//80Hz
001a0a  2115              MOVS     r1,#0x15
001a0c  2090              MOVS     r0,#0x90
001a0e  f7fffffe          BL       LCD_WriteReg
;;;1131   		LCD_WriteReg(0x0010, 0X0410);	//BT,AP
001a12  f44f6182          MOV      r1,#0x410
001a16  2010              MOVS     r0,#0x10
001a18  f7fffffe          BL       LCD_WriteReg
;;;1132   		LCD_WriteReg(0x0011,0x0247);	//DC1,DC0,VC
001a1c  f2402147          MOV      r1,#0x247
001a20  2011              MOVS     r0,#0x11
001a22  f7fffffe          BL       LCD_WriteReg
;;;1133   		LCD_WriteReg(0x0012, 0x01BC);
001a26  f44f71de          MOV      r1,#0x1bc
001a2a  2012              MOVS     r0,#0x12
001a2c  f7fffffe          BL       LCD_WriteReg
;;;1134   		LCD_WriteReg(0x0013, 0x0e00);
001a30  f44f6160          MOV      r1,#0xe00
001a34  2013              MOVS     r0,#0x13
001a36  f7fffffe          BL       LCD_WriteReg
;;;1135   		delay_ms(120);
001a3a  2078              MOVS     r0,#0x78
001a3c  f7fffffe          BL       delay_ms
;;;1136   		LCD_WriteReg(0x0001, 0x0100);
001a40  f44f7180          MOV      r1,#0x100
001a44  2001              MOVS     r0,#1
001a46  f7fffffe          BL       LCD_WriteReg
;;;1137   		LCD_WriteReg(0x0002, 0x0200);
001a4a  f44f7100          MOV      r1,#0x200
001a4e  2002              MOVS     r0,#2
001a50  f7fffffe          BL       LCD_WriteReg
;;;1138   		LCD_WriteReg(0x0003, 0x1030);
001a54  e000              B        |L1.6744|
                  |L1.6742|
001a56  e050              B        |L1.6906|
                  |L1.6744|
001a58  f2410130          MOV      r1,#0x1030
001a5c  2003              MOVS     r0,#3
001a5e  f7fffffe          BL       LCD_WriteReg
;;;1139   		
;;;1140   		LCD_WriteReg(0x000A, 0x0008);
001a62  2108              MOVS     r1,#8
001a64  200a              MOVS     r0,#0xa
001a66  f7fffffe          BL       LCD_WriteReg
;;;1141   		LCD_WriteReg(0x000C, 0x0000);
001a6a  2100              MOVS     r1,#0
001a6c  200c              MOVS     r0,#0xc
001a6e  f7fffffe          BL       LCD_WriteReg
;;;1142   		
;;;1143   		LCD_WriteReg(0x000E, 0x0020);
001a72  2120              MOVS     r1,#0x20
001a74  200e              MOVS     r0,#0xe
001a76  f7fffffe          BL       LCD_WriteReg
;;;1144   		LCD_WriteReg(0x000F, 0x0000);
001a7a  2100              MOVS     r1,#0
001a7c  200f              MOVS     r0,#0xf
001a7e  f7fffffe          BL       LCD_WriteReg
;;;1145   		LCD_WriteReg(0x0020, 0x0000);	//H Start
001a82  2100              MOVS     r1,#0
001a84  2020              MOVS     r0,#0x20
001a86  f7fffffe          BL       LCD_WriteReg
;;;1146   		LCD_WriteReg(0x0021, 0x0000);	//V Start
001a8a  2100              MOVS     r1,#0
001a8c  2021              MOVS     r0,#0x21
001a8e  f7fffffe          BL       LCD_WriteReg
;;;1147   		LCD_WriteReg(0x002A,0x003D);	//vcom2
001a92  213d              MOVS     r1,#0x3d
001a94  202a              MOVS     r0,#0x2a
001a96  f7fffffe          BL       LCD_WriteReg
;;;1148   		delay_ms(20);
001a9a  2014              MOVS     r0,#0x14
001a9c  f7fffffe          BL       delay_ms
;;;1149   		LCD_WriteReg(0x0029, 0x002d);
001aa0  212d              MOVS     r1,#0x2d
001aa2  2029              MOVS     r0,#0x29
001aa4  f7fffffe          BL       LCD_WriteReg
;;;1150   		LCD_WriteReg(0x0050, 0x0000);
001aa8  2100              MOVS     r1,#0
001aaa  2050              MOVS     r0,#0x50
001aac  f7fffffe          BL       LCD_WriteReg
;;;1151   		LCD_WriteReg(0x0051, 0xD0EF);
001ab0  f24d01ef          MOV      r1,#0xd0ef
001ab4  2051              MOVS     r0,#0x51
001ab6  f7fffffe          BL       LCD_WriteReg
;;;1152   		LCD_WriteReg(0x0052, 0x0000);
001aba  2100              MOVS     r1,#0
001abc  2052              MOVS     r0,#0x52
001abe  f7fffffe          BL       LCD_WriteReg
;;;1153   		LCD_WriteReg(0x0053, 0x013F);
001ac2  f240113f          MOV      r1,#0x13f
001ac6  2053              MOVS     r0,#0x53
001ac8  f7fffffe          BL       LCD_WriteReg
;;;1154   		LCD_WriteReg(0x0061, 0x0000);
001acc  2100              MOVS     r1,#0
001ace  2061              MOVS     r0,#0x61
001ad0  f7fffffe          BL       LCD_WriteReg
;;;1155   		LCD_WriteReg(0x006A, 0x0000);
001ad4  2100              MOVS     r1,#0
001ad6  206a              MOVS     r0,#0x6a
001ad8  f7fffffe          BL       LCD_WriteReg
;;;1156   		LCD_WriteReg(0x0092,0x0300); 
001adc  f44f7140          MOV      r1,#0x300
001ae0  2092              MOVS     r0,#0x92
001ae2  f7fffffe          BL       LCD_WriteReg
;;;1157    
;;;1158    		LCD_WriteReg(0x0093, 0x0005);
001ae6  2105              MOVS     r1,#5
001ae8  2093              MOVS     r0,#0x93
001aea  f7fffffe          BL       LCD_WriteReg
;;;1159   		LCD_WriteReg(0x0007, 0x0100);
001aee  f44f7180          MOV      r1,#0x100
001af2  2007              MOVS     r0,#7
001af4  f7fffffe          BL       LCD_WriteReg
001af8  e23d              B        |L1.8054|
                  |L1.6906|
;;;1160   	}else if(lcddev.id==0x8989)//OK |/|/|
001afa  4810              LDR      r0,|L1.6972|
001afc  8880              LDRH     r0,[r0,#4]  ; lcddev
001afe  f5a04109          SUB      r1,r0,#0x8900
001b02  3989              SUBS     r1,r1,#0x89
001b04  d17e              BNE      |L1.7172|
;;;1161   	{	   
;;;1162   		LCD_WriteReg(0x0000,0x0001);//打开晶振
001b06  2101              MOVS     r1,#1
001b08  2000              MOVS     r0,#0
001b0a  f7fffffe          BL       LCD_WriteReg
;;;1163       	LCD_WriteReg(0x0003,0xA8A4);//0xA8A4
001b0e  f64a01a4          MOV      r1,#0xa8a4
001b12  2003              MOVS     r0,#3
001b14  f7fffffe          BL       LCD_WriteReg
;;;1164       	LCD_WriteReg(0x000C,0x0000);    
001b18  2100              MOVS     r1,#0
001b1a  200c              MOVS     r0,#0xc
001b1c  f7fffffe          BL       LCD_WriteReg
;;;1165       	LCD_WriteReg(0x000D,0x080C);   
001b20  f640010c          MOV      r1,#0x80c
001b24  200d              MOVS     r0,#0xd
001b26  f7fffffe          BL       LCD_WriteReg
;;;1166       	LCD_WriteReg(0x000E,0x2B00);    
001b2a  f44f512c          MOV      r1,#0x2b00
001b2e  200e              MOVS     r0,#0xe
001b30  f7fffffe          BL       LCD_WriteReg
;;;1167       	LCD_WriteReg(0x001E,0x00B0);    
001b34  21b0              MOVS     r1,#0xb0
001b36  201e              MOVS     r0,#0x1e
001b38  e002              B        |L1.6976|
001b3a  0000              DCW      0x0000
                  |L1.6972|
                          DCD      lcddev
                  |L1.6976|
001b40  f7fffffe          BL       LCD_WriteReg
;;;1168       	LCD_WriteReg(0x0001,0x2B3F);//驱动输出控制320*240  0x6B3F
001b44  f642313f          MOV      r1,#0x2b3f
001b48  2001              MOVS     r0,#1
001b4a  f7fffffe          BL       LCD_WriteReg
;;;1169       	LCD_WriteReg(0x0002,0x0600);
001b4e  f44f61c0          MOV      r1,#0x600
001b52  2002              MOVS     r0,#2
001b54  f7fffffe          BL       LCD_WriteReg
;;;1170       	LCD_WriteReg(0x0010,0x0000);  
001b58  2100              MOVS     r1,#0
001b5a  2010              MOVS     r0,#0x10
001b5c  f7fffffe          BL       LCD_WriteReg
;;;1171       	LCD_WriteReg(0x0011,0x6078); //定义数据格式  16位色 		横屏 0x6058
001b60  f2460178          MOV      r1,#0x6078
001b64  2011              MOVS     r0,#0x11
001b66  f7fffffe          BL       LCD_WriteReg
;;;1172       	LCD_WriteReg(0x0005,0x0000);  
001b6a  2100              MOVS     r1,#0
001b6c  2005              MOVS     r0,#5
001b6e  f7fffffe          BL       LCD_WriteReg
;;;1173       	LCD_WriteReg(0x0006,0x0000);  
001b72  2100              MOVS     r1,#0
001b74  2006              MOVS     r0,#6
001b76  f7fffffe          BL       LCD_WriteReg
;;;1174       	LCD_WriteReg(0x0016,0xEF1C);  
001b7a  f64e711c          MOV      r1,#0xef1c
001b7e  2016              MOVS     r0,#0x16
001b80  f7fffffe          BL       LCD_WriteReg
;;;1175       	LCD_WriteReg(0x0017,0x0003);  
001b84  2103              MOVS     r1,#3
001b86  2017              MOVS     r0,#0x17
001b88  f7fffffe          BL       LCD_WriteReg
;;;1176       	LCD_WriteReg(0x0007,0x0233); //0x0233       
001b8c  f2402133          MOV      r1,#0x233
001b90  2007              MOVS     r0,#7
001b92  f7fffffe          BL       LCD_WriteReg
;;;1177       	LCD_WriteReg(0x000B,0x0000);  
001b96  2100              MOVS     r1,#0
001b98  200b              MOVS     r0,#0xb
001b9a  f7fffffe          BL       LCD_WriteReg
;;;1178       	LCD_WriteReg(0x000F,0x0000); //扫描开始地址
001b9e  2100              MOVS     r1,#0
001ba0  200f              MOVS     r0,#0xf
001ba2  f7fffffe          BL       LCD_WriteReg
;;;1179       	LCD_WriteReg(0x0041,0x0000);  
001ba6  2100              MOVS     r1,#0
001ba8  2041              MOVS     r0,#0x41
001baa  f7fffffe          BL       LCD_WriteReg
;;;1180       	LCD_WriteReg(0x0042,0x0000);  
001bae  2100              MOVS     r1,#0
001bb0  2042              MOVS     r0,#0x42
001bb2  f7fffffe          BL       LCD_WriteReg
;;;1181       	LCD_WriteReg(0x0048,0x0000);  
001bb6  2100              MOVS     r1,#0
001bb8  2048              MOVS     r0,#0x48
001bba  f7fffffe          BL       LCD_WriteReg
;;;1182       	LCD_WriteReg(0x0049,0x013F);  
001bbe  f240113f          MOV      r1,#0x13f
001bc2  2049              MOVS     r0,#0x49
001bc4  f7fffffe          BL       LCD_WriteReg
;;;1183       	LCD_WriteReg(0x004A,0x0000);  
001bc8  2100              MOVS     r1,#0
001bca  204a              MOVS     r0,#0x4a
001bcc  f7fffffe          BL       LCD_WriteReg
;;;1184       	LCD_WriteReg(0x004B,0x0000);  
001bd0  2100              MOVS     r1,#0
001bd2  204b              MOVS     r0,#0x4b
001bd4  f7fffffe          BL       LCD_WriteReg
;;;1185       	LCD_WriteReg(0x0044,0xEF00);  
001bd8  f44f416f          MOV      r1,#0xef00
001bdc  2044              MOVS     r0,#0x44
001bde  f7fffffe          BL       LCD_WriteReg
;;;1186       	LCD_WriteReg(0x0045,0x0000);  
001be2  2100              MOVS     r1,#0
001be4  2045              MOVS     r0,#0x45
001be6  f7fffffe          BL       LCD_WriteReg
;;;1187       	LCD_WriteReg(0x0046,0x013F);  
001bea  f240113f          MOV      r1,#0x13f
001bee  2046              MOVS     r0,#0x46
001bf0  f7fffffe          BL       LCD_WriteReg
;;;1188       	LCD_WriteReg(0x0030,0x0707);  
001bf4  f2407107          MOV      r1,#0x707
001bf8  2030              MOVS     r0,#0x30
001bfa  f7fffffe          BL       LCD_WriteReg
;;;1189       	LCD_WriteReg(0x0031,0x0204);  
001bfe  f44f7101          MOV      r1,#0x204
001c02  e000              B        |L1.7174|
                  |L1.7172|
001c04  e040              B        |L1.7304|
                  |L1.7174|
001c06  2031              MOVS     r0,#0x31
001c08  f7fffffe          BL       LCD_WriteReg
;;;1190       	LCD_WriteReg(0x0032,0x0204);  
001c0c  f44f7101          MOV      r1,#0x204
001c10  2032              MOVS     r0,#0x32
001c12  f7fffffe          BL       LCD_WriteReg
;;;1191       	LCD_WriteReg(0x0033,0x0502);  
001c16  f2405102          MOV      r1,#0x502
001c1a  2033              MOVS     r0,#0x33
001c1c  f7fffffe          BL       LCD_WriteReg
;;;1192       	LCD_WriteReg(0x0034,0x0507);  
001c20  f2405107          MOV      r1,#0x507
001c24  2034              MOVS     r0,#0x34
001c26  f7fffffe          BL       LCD_WriteReg
;;;1193       	LCD_WriteReg(0x0035,0x0204);  
001c2a  f44f7101          MOV      r1,#0x204
001c2e  2035              MOVS     r0,#0x35
001c30  f7fffffe          BL       LCD_WriteReg
;;;1194       	LCD_WriteReg(0x0036,0x0204);  
001c34  f44f7101          MOV      r1,#0x204
001c38  2036              MOVS     r0,#0x36
001c3a  f7fffffe          BL       LCD_WriteReg
;;;1195       	LCD_WriteReg(0x0037,0x0502);  
001c3e  f2405102          MOV      r1,#0x502
001c42  2037              MOVS     r0,#0x37
001c44  f7fffffe          BL       LCD_WriteReg
;;;1196       	LCD_WriteReg(0x003A,0x0302);  
001c48  f2403102          MOV      r1,#0x302
001c4c  203a              MOVS     r0,#0x3a
001c4e  f7fffffe          BL       LCD_WriteReg
;;;1197       	LCD_WriteReg(0x003B,0x0302);  
001c52  f2403102          MOV      r1,#0x302
001c56  203b              MOVS     r0,#0x3b
001c58  f7fffffe          BL       LCD_WriteReg
;;;1198       	LCD_WriteReg(0x0023,0x0000);  
001c5c  2100              MOVS     r1,#0
001c5e  2023              MOVS     r0,#0x23
001c60  f7fffffe          BL       LCD_WriteReg
;;;1199       	LCD_WriteReg(0x0024,0x0000);  
001c64  2100              MOVS     r1,#0
001c66  2024              MOVS     r0,#0x24
001c68  f7fffffe          BL       LCD_WriteReg
;;;1200       	LCD_WriteReg(0x0025,0x8000);  
001c6c  f44f4100          MOV      r1,#0x8000
001c70  2025              MOVS     r0,#0x25
001c72  f7fffffe          BL       LCD_WriteReg
;;;1201       	LCD_WriteReg(0x004f,0);        //行首址0
001c76  2100              MOVS     r1,#0
001c78  204f              MOVS     r0,#0x4f
001c7a  f7fffffe          BL       LCD_WriteReg
;;;1202       	LCD_WriteReg(0x004e,0);        //列首址0
001c7e  2100              MOVS     r1,#0
001c80  204e              MOVS     r0,#0x4e
001c82  f7fffffe          BL       LCD_WriteReg
001c86  e176              B        |L1.8054|
                  |L1.7304|
;;;1203   	}else if(lcddev.id==0x4531)//OK |/|/|
001c88  48fb              LDR      r0,|L1.8312|
001c8a  8880              LDRH     r0,[r0,#4]  ; lcddev
001c8c  f5a0418a          SUB      r1,r0,#0x4500
001c90  3931              SUBS     r1,r1,#0x31
001c92  d17e              BNE      |L1.7570|
;;;1204   	{
;;;1205   		LCD_WriteReg(0X00,0X0001);   
001c94  2101              MOVS     r1,#1
001c96  2000              MOVS     r0,#0
001c98  f7fffffe          BL       LCD_WriteReg
;;;1206   		delay_ms(10);   
001c9c  200a              MOVS     r0,#0xa
001c9e  f7fffffe          BL       delay_ms
;;;1207   		LCD_WriteReg(0X10,0X1628);   
001ca2  f2416128          MOV      r1,#0x1628
001ca6  2010              MOVS     r0,#0x10
001ca8  f7fffffe          BL       LCD_WriteReg
;;;1208   		LCD_WriteReg(0X12,0X000e);//0x0006    
001cac  210e              MOVS     r1,#0xe
001cae  2012              MOVS     r0,#0x12
001cb0  f7fffffe          BL       LCD_WriteReg
;;;1209   		LCD_WriteReg(0X13,0X0A39);   
001cb4  f6402139          MOV      r1,#0xa39
001cb8  2013              MOVS     r0,#0x13
001cba  f7fffffe          BL       LCD_WriteReg
;;;1210   		delay_ms(10);   
001cbe  200a              MOVS     r0,#0xa
001cc0  f7fffffe          BL       delay_ms
;;;1211   		LCD_WriteReg(0X11,0X0040);   
001cc4  2140              MOVS     r1,#0x40
001cc6  2011              MOVS     r0,#0x11
001cc8  f7fffffe          BL       LCD_WriteReg
;;;1212   		LCD_WriteReg(0X15,0X0050);   
001ccc  2150              MOVS     r1,#0x50
001cce  2015              MOVS     r0,#0x15
001cd0  f7fffffe          BL       LCD_WriteReg
;;;1213   		delay_ms(10);   
001cd4  200a              MOVS     r0,#0xa
001cd6  f7fffffe          BL       delay_ms
;;;1214   		LCD_WriteReg(0X12,0X001e);//16    
001cda  211e              MOVS     r1,#0x1e
001cdc  2012              MOVS     r0,#0x12
001cde  f7fffffe          BL       LCD_WriteReg
;;;1215   		delay_ms(10);   
001ce2  200a              MOVS     r0,#0xa
001ce4  f7fffffe          BL       delay_ms
;;;1216   		LCD_WriteReg(0X10,0X1620);   
001ce8  f44f51b1          MOV      r1,#0x1620
001cec  2010              MOVS     r0,#0x10
001cee  f7fffffe          BL       LCD_WriteReg
;;;1217   		LCD_WriteReg(0X13,0X2A39);   
001cf2  f6422139          MOV      r1,#0x2a39
001cf6  2013              MOVS     r0,#0x13
001cf8  f7fffffe          BL       LCD_WriteReg
;;;1218   		delay_ms(10);   
001cfc  200a              MOVS     r0,#0xa
001cfe  f7fffffe          BL       delay_ms
;;;1219   		LCD_WriteReg(0X01,0X0100);   
001d02  f44f7180          MOV      r1,#0x100
001d06  2001              MOVS     r0,#1
001d08  f7fffffe          BL       LCD_WriteReg
;;;1220   		LCD_WriteReg(0X02,0X0300);   
001d0c  f44f7140          MOV      r1,#0x300
001d10  2002              MOVS     r0,#2
001d12  f7fffffe          BL       LCD_WriteReg
;;;1221   		LCD_WriteReg(0X03,0X1038);//改变方向的   
001d16  f2410138          MOV      r1,#0x1038
001d1a  2003              MOVS     r0,#3
001d1c  f7fffffe          BL       LCD_WriteReg
;;;1222   		LCD_WriteReg(0X08,0X0202);   
001d20  f2402102          MOV      r1,#0x202
001d24  2008              MOVS     r0,#8
001d26  f7fffffe          BL       LCD_WriteReg
;;;1223   		LCD_WriteReg(0X0A,0X0008);   
001d2a  2108              MOVS     r1,#8
001d2c  200a              MOVS     r0,#0xa
001d2e  f7fffffe          BL       LCD_WriteReg
;;;1224   		LCD_WriteReg(0X30,0X0000);   
001d32  2100              MOVS     r1,#0
001d34  2030              MOVS     r0,#0x30
001d36  f7fffffe          BL       LCD_WriteReg
;;;1225   		LCD_WriteReg(0X31,0X0402);   
001d3a  f2404102          MOV      r1,#0x402
001d3e  2031              MOVS     r0,#0x31
001d40  f7fffffe          BL       LCD_WriteReg
;;;1226   		LCD_WriteReg(0X32,0X0106);   
001d44  f44f7183          MOV      r1,#0x106
001d48  2032              MOVS     r0,#0x32
001d4a  f7fffffe          BL       LCD_WriteReg
;;;1227   		LCD_WriteReg(0X33,0X0503);   
001d4e  f2405103          MOV      r1,#0x503
001d52  2033              MOVS     r0,#0x33
001d54  f7fffffe          BL       LCD_WriteReg
;;;1228   		LCD_WriteReg(0X34,0X0104);   
001d58  f44f7182          MOV      r1,#0x104
001d5c  2034              MOVS     r0,#0x34
001d5e  f7fffffe          BL       LCD_WriteReg
;;;1229   		LCD_WriteReg(0X35,0X0301);   
001d62  f2403101          MOV      r1,#0x301
001d66  2035              MOVS     r0,#0x35
001d68  f7fffffe          BL       LCD_WriteReg
;;;1230   		LCD_WriteReg(0X36,0X0707);   
001d6c  f2407107          MOV      r1,#0x707
001d70  2036              MOVS     r0,#0x36
001d72  f7fffffe          BL       LCD_WriteReg
;;;1231   		LCD_WriteReg(0X37,0X0305);   
001d76  f2403105          MOV      r1,#0x305
001d7a  2037              MOVS     r0,#0x37
001d7c  f7fffffe          BL       LCD_WriteReg
;;;1232   		LCD_WriteReg(0X38,0X0208);   
001d80  f44f7102          MOV      r1,#0x208
001d84  2038              MOVS     r0,#0x38
001d86  f7fffffe          BL       LCD_WriteReg
;;;1233   		LCD_WriteReg(0X39,0X0F0B);   
001d8a  f640710b          MOV      r1,#0xf0b
001d8e  2039              MOVS     r0,#0x39
001d90  e000              B        |L1.7572|
                  |L1.7570|
001d92  e03b              B        |L1.7692|
                  |L1.7572|
001d94  f7fffffe          BL       LCD_WriteReg
;;;1234   		LCD_WriteReg(0X41,0X0002);   
001d98  2102              MOVS     r1,#2
001d9a  2041              MOVS     r0,#0x41
001d9c  f7fffffe          BL       LCD_WriteReg
;;;1235   		LCD_WriteReg(0X60,0X2700);   
001da0  f44f511c          MOV      r1,#0x2700
001da4  2060              MOVS     r0,#0x60
001da6  f7fffffe          BL       LCD_WriteReg
;;;1236   		LCD_WriteReg(0X61,0X0001);   
001daa  2101              MOVS     r1,#1
001dac  2061              MOVS     r0,#0x61
001dae  f7fffffe          BL       LCD_WriteReg
;;;1237   		LCD_WriteReg(0X90,0X0210);   
001db2  f44f7104          MOV      r1,#0x210
001db6  2090              MOVS     r0,#0x90
001db8  f7fffffe          BL       LCD_WriteReg
;;;1238   		LCD_WriteReg(0X92,0X010A);   
001dbc  f44f7185          MOV      r1,#0x10a
001dc0  2092              MOVS     r0,#0x92
001dc2  f7fffffe          BL       LCD_WriteReg
;;;1239   		LCD_WriteReg(0X93,0X0004);   
001dc6  2104              MOVS     r1,#4
001dc8  2093              MOVS     r0,#0x93
001dca  f7fffffe          BL       LCD_WriteReg
;;;1240   		LCD_WriteReg(0XA0,0X0100);   
001dce  f44f7180          MOV      r1,#0x100
001dd2  20a0              MOVS     r0,#0xa0
001dd4  f7fffffe          BL       LCD_WriteReg
;;;1241   		LCD_WriteReg(0X07,0X0001);   
001dd8  2101              MOVS     r1,#1
001dda  2007              MOVS     r0,#7
001ddc  f7fffffe          BL       LCD_WriteReg
;;;1242   		LCD_WriteReg(0X07,0X0021);   
001de0  2121              MOVS     r1,#0x21
001de2  2007              MOVS     r0,#7
001de4  f7fffffe          BL       LCD_WriteReg
;;;1243   		LCD_WriteReg(0X07,0X0023);   
001de8  2123              MOVS     r1,#0x23
001dea  2007              MOVS     r0,#7
001dec  f7fffffe          BL       LCD_WriteReg
;;;1244   		LCD_WriteReg(0X07,0X0033);   
001df0  2133              MOVS     r1,#0x33
001df2  2007              MOVS     r0,#7
001df4  f7fffffe          BL       LCD_WriteReg
;;;1245   		LCD_WriteReg(0X07,0X0133);   
001df8  f2401133          MOV      r1,#0x133
001dfc  2007              MOVS     r0,#7
001dfe  f7fffffe          BL       LCD_WriteReg
;;;1246   		LCD_WriteReg(0XA0,0X0000); 
001e02  2100              MOVS     r1,#0
001e04  20a0              MOVS     r0,#0xa0
001e06  f7fffffe          BL       LCD_WriteReg
                  |L1.7690|
001e0a  e0b4              B        |L1.8054|
                  |L1.7692|
;;;1247   	}else if(lcddev.id==0x4535)
001e0c  489a              LDR      r0,|L1.8312|
001e0e  8880              LDRH     r0,[r0,#4]  ; lcddev
001e10  f5a0418a          SUB      r1,r0,#0x4500
001e14  3935              SUBS     r1,r1,#0x35
001e16  d1f8              BNE      |L1.7690|
;;;1248   	{			      
;;;1249   		LCD_WriteReg(0X15,0X0030);   
001e18  2130              MOVS     r1,#0x30
001e1a  2015              MOVS     r0,#0x15
001e1c  f7fffffe          BL       LCD_WriteReg
;;;1250   		LCD_WriteReg(0X9A,0X0010);   
001e20  2110              MOVS     r1,#0x10
001e22  209a              MOVS     r0,#0x9a
001e24  f7fffffe          BL       LCD_WriteReg
;;;1251    		LCD_WriteReg(0X11,0X0020);   
001e28  2120              MOVS     r1,#0x20
001e2a  2011              MOVS     r0,#0x11
001e2c  f7fffffe          BL       LCD_WriteReg
;;;1252    		LCD_WriteReg(0X10,0X3428);   
001e30  f2434128          MOV      r1,#0x3428
001e34  2010              MOVS     r0,#0x10
001e36  f7fffffe          BL       LCD_WriteReg
;;;1253   		LCD_WriteReg(0X12,0X0002);//16    
001e3a  2102              MOVS     r1,#2
001e3c  2012              MOVS     r0,#0x12
001e3e  f7fffffe          BL       LCD_WriteReg
;;;1254    		LCD_WriteReg(0X13,0X1038);   
001e42  f2410138          MOV      r1,#0x1038
001e46  2013              MOVS     r0,#0x13
001e48  f7fffffe          BL       LCD_WriteReg
;;;1255   		delay_ms(40);   
001e4c  2028              MOVS     r0,#0x28
001e4e  f7fffffe          BL       delay_ms
;;;1256   		LCD_WriteReg(0X12,0X0012);//16    
001e52  2112              MOVS     r1,#0x12
001e54  4608              MOV      r0,r1
001e56  f7fffffe          BL       LCD_WriteReg
;;;1257   		delay_ms(40);   
001e5a  2028              MOVS     r0,#0x28
001e5c  f7fffffe          BL       delay_ms
;;;1258     		LCD_WriteReg(0X10,0X3420);   
001e60  f2434120          MOV      r1,#0x3420
001e64  2010              MOVS     r0,#0x10
001e66  f7fffffe          BL       LCD_WriteReg
;;;1259    		LCD_WriteReg(0X13,0X3038);   
001e6a  f2430138          MOV      r1,#0x3038
001e6e  2013              MOVS     r0,#0x13
001e70  f7fffffe          BL       LCD_WriteReg
;;;1260   		delay_ms(70);   
001e74  2046              MOVS     r0,#0x46
001e76  f7fffffe          BL       delay_ms
;;;1261   		LCD_WriteReg(0X30,0X0000);   
001e7a  2100              MOVS     r1,#0
001e7c  2030              MOVS     r0,#0x30
001e7e  f7fffffe          BL       LCD_WriteReg
;;;1262   		LCD_WriteReg(0X31,0X0402);   
001e82  f2404102          MOV      r1,#0x402
001e86  2031              MOVS     r0,#0x31
001e88  f7fffffe          BL       LCD_WriteReg
;;;1263   		LCD_WriteReg(0X32,0X0307);   
001e8c  f2403107          MOV      r1,#0x307
001e90  2032              MOVS     r0,#0x32
001e92  f7fffffe          BL       LCD_WriteReg
;;;1264   		LCD_WriteReg(0X33,0X0304);   
001e96  f44f7141          MOV      r1,#0x304
001e9a  2033              MOVS     r0,#0x33
001e9c  f7fffffe          BL       LCD_WriteReg
;;;1265   		LCD_WriteReg(0X34,0X0004);   
001ea0  2104              MOVS     r1,#4
001ea2  2034              MOVS     r0,#0x34
001ea4  f7fffffe          BL       LCD_WriteReg
;;;1266   		LCD_WriteReg(0X35,0X0401);   
001ea8  f2404101          MOV      r1,#0x401
001eac  2035              MOVS     r0,#0x35
001eae  f7fffffe          BL       LCD_WriteReg
;;;1267   		LCD_WriteReg(0X36,0X0707);   
001eb2  f2407107          MOV      r1,#0x707
001eb6  2036              MOVS     r0,#0x36
001eb8  f7fffffe          BL       LCD_WriteReg
;;;1268   		LCD_WriteReg(0X37,0X0305);   
001ebc  f2403105          MOV      r1,#0x305
001ec0  2037              MOVS     r0,#0x37
001ec2  f7fffffe          BL       LCD_WriteReg
;;;1269   		LCD_WriteReg(0X38,0X0610);   
001ec6  f44f61c2          MOV      r1,#0x610
001eca  2038              MOVS     r0,#0x38
001ecc  f7fffffe          BL       LCD_WriteReg
;;;1270   		LCD_WriteReg(0X39,0X0610); 
001ed0  f44f61c2          MOV      r1,#0x610
001ed4  2039              MOVS     r0,#0x39
001ed6  f7fffffe          BL       LCD_WriteReg
;;;1271   		  
;;;1272   		LCD_WriteReg(0X01,0X0100);   
001eda  f44f7180          MOV      r1,#0x100
001ede  2001              MOVS     r0,#1
001ee0  f7fffffe          BL       LCD_WriteReg
;;;1273   		LCD_WriteReg(0X02,0X0300);   
001ee4  f44f7140          MOV      r1,#0x300
001ee8  2002              MOVS     r0,#2
001eea  f7fffffe          BL       LCD_WriteReg
;;;1274   		LCD_WriteReg(0X03,0X1030);//改变方向的   
001eee  f2410130          MOV      r1,#0x1030
001ef2  2003              MOVS     r0,#3
001ef4  f7fffffe          BL       LCD_WriteReg
;;;1275   		LCD_WriteReg(0X08,0X0808);   
001ef8  f6400108          MOV      r1,#0x808
001efc  2008              MOVS     r0,#8
001efe  f7fffffe          BL       LCD_WriteReg
;;;1276   		LCD_WriteReg(0X0A,0X0008);   
001f02  2108              MOVS     r1,#8
001f04  200a              MOVS     r0,#0xa
001f06  f7fffffe          BL       LCD_WriteReg
;;;1277    		LCD_WriteReg(0X60,0X2700);   
001f0a  f44f511c          MOV      r1,#0x2700
001f0e  2060              MOVS     r0,#0x60
001f10  f7fffffe          BL       LCD_WriteReg
;;;1278   		LCD_WriteReg(0X61,0X0001);   
001f14  2101              MOVS     r1,#1
001f16  2061              MOVS     r0,#0x61
001f18  f7fffffe          BL       LCD_WriteReg
;;;1279   		LCD_WriteReg(0X90,0X013E);   
001f1c  f44f719f          MOV      r1,#0x13e
001f20  2090              MOVS     r0,#0x90
001f22  f7fffffe          BL       LCD_WriteReg
;;;1280   		LCD_WriteReg(0X92,0X0100);   
001f26  f44f7180          MOV      r1,#0x100
001f2a  2092              MOVS     r0,#0x92
001f2c  f7fffffe          BL       LCD_WriteReg
;;;1281   		LCD_WriteReg(0X93,0X0100);   
001f30  f44f7180          MOV      r1,#0x100
001f34  2093              MOVS     r0,#0x93
001f36  f7fffffe          BL       LCD_WriteReg
;;;1282    		LCD_WriteReg(0XA0,0X3000);   
001f3a  f44f5140          MOV      r1,#0x3000
001f3e  20a0              MOVS     r0,#0xa0
001f40  f7fffffe          BL       LCD_WriteReg
;;;1283    		LCD_WriteReg(0XA3,0X0010);   
001f44  2110              MOVS     r1,#0x10
001f46  20a3              MOVS     r0,#0xa3
001f48  f7fffffe          BL       LCD_WriteReg
;;;1284   		LCD_WriteReg(0X07,0X0001);   
001f4c  2101              MOVS     r1,#1
001f4e  2007              MOVS     r0,#7
001f50  f7fffffe          BL       LCD_WriteReg
;;;1285   		LCD_WriteReg(0X07,0X0021);   
001f54  2121              MOVS     r1,#0x21
001f56  2007              MOVS     r0,#7
001f58  f7fffffe          BL       LCD_WriteReg
;;;1286   		LCD_WriteReg(0X07,0X0023);   
001f5c  2123              MOVS     r1,#0x23
001f5e  2007              MOVS     r0,#7
001f60  f7fffffe          BL       LCD_WriteReg
;;;1287   		LCD_WriteReg(0X07,0X0033);   
001f64  2133              MOVS     r1,#0x33
001f66  2007              MOVS     r0,#7
001f68  f7fffffe          BL       LCD_WriteReg
;;;1288   		LCD_WriteReg(0X07,0X0133);   
001f6c  f2401133          MOV      r1,#0x133
001f70  2007              MOVS     r0,#7
001f72  f7fffffe          BL       LCD_WriteReg
                  |L1.8054|
;;;1289   	}		 
;;;1290   	LCD_Display_Dir(0);		 	//默认为竖屏
001f76  2000              MOVS     r0,#0
001f78  f7fffffe          BL       LCD_Display_Dir
;;;1291   	LCD_LED=1;					//点亮背光
001f7c  2001              MOVS     r0,#1
001f7e  493f              LDR      r1,|L1.8316|
001f80  6008              STR      r0,[r1,#0]
;;;1292   	LCD_Clear(WHITE);
001f82  f64f70ff          MOV      r0,#0xffff
001f86  f7fffffe          BL       LCD_Clear
;;;1293   }  
001f8a  bd10              POP      {r4,pc}
;;;1294   //清屏函数
                          ENDP

                  LCD_Fill PROC
;;;1319   //color:要填充的颜色
;;;1320   void LCD_Fill(u16 sx,u16 sy,u16 ex,u16 ey,u16 color)
001f8c  e92d4ff8          PUSH     {r3-r11,lr}
;;;1321   {          
001f90  4604              MOV      r4,r0
001f92  460d              MOV      r5,r1
001f94  4616              MOV      r6,r2
001f96  461f              MOV      r7,r3
;;;1322   	u16 i,j;
;;;1323   	u16 xlen=0;
001f98  f04f0a00          MOV      r10,#0
;;;1324   	u16 temp;
;;;1325   	if((lcddev.id==0X6804)&&(lcddev.dir==1))	//6804横屏的时候特殊处理  
001f9c  4836              LDR      r0,|L1.8312|
001f9e  8880              LDRH     r0,[r0,#4]  ; lcddev
001fa0  f5a041d0          SUB      r1,r0,#0x6800
001fa4  3904              SUBS     r1,#4
001fa6  d128              BNE      |L1.8186|
001fa8  4833              LDR      r0,|L1.8312|
001faa  7980              LDRB     r0,[r0,#6]  ; lcddev
001fac  2801              CMP      r0,#1
001fae  d124              BNE      |L1.8186|
;;;1326   	{
;;;1327   		temp=sx;
001fb0  46a3              MOV      r11,r4
;;;1328   		sx=sy;
001fb2  462c              MOV      r4,r5
;;;1329   		sy=lcddev.width-ex-1;	  
001fb4  4830              LDR      r0,|L1.8312|
001fb6  8800              LDRH     r0,[r0,#0]  ; lcddev
001fb8  1b80              SUBS     r0,r0,r6
001fba  1e40              SUBS     r0,r0,#1
001fbc  b285              UXTH     r5,r0
;;;1330   		ex=ey;
001fbe  463e              MOV      r6,r7
;;;1331   		ey=lcddev.width-temp-1;
001fc0  482d              LDR      r0,|L1.8312|
001fc2  8800              LDRH     r0,[r0,#0]  ; lcddev
001fc4  eba0000b          SUB      r0,r0,r11
001fc8  1e40              SUBS     r0,r0,#1
001fca  b287              UXTH     r7,r0
;;;1332    		lcddev.dir=0;	 
001fcc  2000              MOVS     r0,#0
001fce  492a              LDR      r1,|L1.8312|
001fd0  7188              STRB     r0,[r1,#6]
;;;1333    		lcddev.setxcmd=0X2A;
001fd2  202a              MOVS     r0,#0x2a
001fd4  7208              STRB     r0,[r1,#8]
;;;1334   		lcddev.setycmd=0X2B;  	 			
001fd6  202b              MOVS     r0,#0x2b
001fd8  7248              STRB     r0,[r1,#9]
;;;1335   		LCD_Fill(sx,sy,ex,ey,color);  
001fda  9b0a              LDR      r3,[sp,#0x28]
001fdc  9300              STR      r3,[sp,#0]
001fde  463b              MOV      r3,r7
001fe0  4632              MOV      r2,r6
001fe2  4629              MOV      r1,r5
001fe4  4620              MOV      r0,r4
001fe6  f7fffffe          BL       LCD_Fill
;;;1336    		lcddev.dir=1;	 
001fea  2001              MOVS     r0,#1
001fec  4922              LDR      r1,|L1.8312|
001fee  7188              STRB     r0,[r1,#6]
;;;1337     		lcddev.setxcmd=0X2B;
001ff0  202b              MOVS     r0,#0x2b
001ff2  7208              STRB     r0,[r1,#8]
;;;1338   		lcddev.setycmd=0X2A;  	 
001ff4  202a              MOVS     r0,#0x2a
001ff6  7248              STRB     r0,[r1,#9]
001ff8  e01d              B        |L1.8246|
                  |L1.8186|
;;;1339    	}else
;;;1340   	{
;;;1341   		xlen=ex-sx+1;	 
001ffa  1b30              SUBS     r0,r6,r4
001ffc  1c40              ADDS     r0,r0,#1
001ffe  fa1ffa80          UXTH     r10,r0
;;;1342   		for(i=sy;i<=ey;i++)
002002  46a8              MOV      r8,r5
002004  e015              B        |L1.8242|
                  |L1.8198|
;;;1343   		{
;;;1344   		 	LCD_SetCursor(sx,i);      				//设置光标位置 
002006  4641              MOV      r1,r8
002008  4620              MOV      r0,r4
00200a  f7fffffe          BL       LCD_SetCursor
;;;1345   			LCD_WriteRAM_Prepare();     			//开始写入GRAM	  
00200e  f7fffffe          BL       LCD_WriteRAM_Prepare
;;;1346   			for(j=0;j<xlen;j++)LCD_WR_DATA(color);	//设置光标位置 	    
002012  f04f0900          MOV      r9,#0
002016  e006              B        |L1.8230|
                  |L1.8216|
002018  980a              LDR      r0,[sp,#0x28]
00201a  f7fffffe          BL       LCD_WR_DATA
00201e  f1090001          ADD      r0,r9,#1
002022  fa1ff980          UXTH     r9,r0
                  |L1.8230|
002026  45d1              CMP      r9,r10
002028  dbf6              BLT      |L1.8216|
00202a  f1080001          ADD      r0,r8,#1              ;1342
00202e  fa1ff880          UXTH     r8,r0                 ;1342
                  |L1.8242|
002032  45b8              CMP      r8,r7                 ;1342
002034  dde7              BLE      |L1.8198|
                  |L1.8246|
;;;1347   		}
;;;1348   	}	 
;;;1349   }  
002036  e8bd8ff8          POP      {r3-r11,pc}
;;;1350   //在指定区域内填充指定颜色块			 
                          ENDP

                  LCD_Color_Fill PROC
;;;1352   //color:要填充的颜色
;;;1353   void LCD_Color_Fill(u16 sx,u16 sy,u16 ex,u16 ey,u16 *color)
00203a  e92d4ff8          PUSH     {r3-r11,lr}
;;;1354   {  
00203e  4604              MOV      r4,r0
002040  460d              MOV      r5,r1
002042  4616              MOV      r6,r2
002044  461f              MOV      r7,r3
002046  f8dd8028          LDR      r8,[sp,#0x28]
;;;1355   	u16 height,width;
;;;1356   	u16 i,j;
;;;1357   	width=ex-sx+1; 			//得到填充的宽度
00204a  1b30              SUBS     r0,r6,r4
00204c  1c40              ADDS     r0,r0,#1
00204e  b280              UXTH     r0,r0
002050  9000              STR      r0,[sp,#0]
;;;1358   	height=ey-sy+1;			//高度
002052  1b78              SUBS     r0,r7,r5
002054  1c40              ADDS     r0,r0,#1
002056  fa1ff980          UXTH     r9,r0
;;;1359    	for(i=0;i<height;i++)
00205a  f04f0a00          MOV      r10,#0
00205e  e020              B        |L1.8354|
                  |L1.8288|
;;;1360   	{
;;;1361    		LCD_SetCursor(sx,sy+i);   	//设置光标位置 
002060  eb05000a          ADD      r0,r5,r10
002064  b281              UXTH     r1,r0
002066  4620              MOV      r0,r4
002068  f7fffffe          BL       LCD_SetCursor
;;;1362   		LCD_WriteRAM_Prepare();     //开始写入GRAM
00206c  f7fffffe          BL       LCD_WriteRAM_Prepare
;;;1363   		for(j=0;j<width;j++)LCD->LCD_RAM=color[i*height+j];//写入数据 
002070  f04f0b00          MOV      r11,#0
002074  e00e              B        |L1.8340|
002076  0000              DCW      0x0000
                  |L1.8312|
                          DCD      lcddev
                  |L1.8316|
                          DCD      0x42218180
                  |L1.8320|
002080  fb0ab009          MLA      r0,r10,r9,r11
002084  f8380010          LDRH     r0,[r8,r0,LSL #1]
002088  49f7              LDR      r1,|L1.9320|
00208a  8008              STRH     r0,[r1,#0]
00208c  f10b0001          ADD      r0,r11,#1
002090  fa1ffb80          UXTH     r11,r0
                  |L1.8340|
002094  9800              LDR      r0,[sp,#0]
002096  4583              CMP      r11,r0
002098  dbf2              BLT      |L1.8320|
00209a  f10a0001          ADD      r0,r10,#1             ;1359
00209e  fa1ffa80          UXTH     r10,r0                ;1359
                  |L1.8354|
0020a2  45ca              CMP      r10,r9                ;1359
0020a4  dbdc              BLT      |L1.8288|
;;;1364   	}	  
;;;1365   }  
0020a6  e8bd8ff8          POP      {r3-r11,pc}
;;;1366   //画线
                          ENDP

                  LCD_DrawLine PROC
;;;1368   //x2,y2:终点坐标  
;;;1369   void LCD_DrawLine(u16 x1, u16 y1, u16 x2, u16 y2)
0020aa  e92d4fff          PUSH     {r0-r11,lr}
;;;1370   {
0020ae  b085              SUB      sp,sp,#0x14
0020b0  4604              MOV      r4,r0
0020b2  460d              MOV      r5,r1
0020b4  4616              MOV      r6,r2
;;;1371   	u16 t; 
;;;1372   	int xerr=0,yerr=0,delta_x,delta_y,distance; 
0020b6  2000              MOVS     r0,#0
0020b8  9004              STR      r0,[sp,#0x10]
0020ba  9003              STR      r0,[sp,#0xc]
;;;1373   	int incx,incy,uRow,uCol; 
;;;1374   	delta_x=x2-x1; //计算坐标增量 
0020bc  eba60804          SUB      r8,r6,r4
;;;1375   	delta_y=y2-y1; 
0020c0  9808              LDR      r0,[sp,#0x20]
0020c2  eba00905          SUB      r9,r0,r5
;;;1376   	uRow=x1; 
0020c6  46a3              MOV      r11,r4
;;;1377   	uCol=y1; 
0020c8  9500              STR      r5,[sp,#0]
;;;1378   	if(delta_x>0)incx=1; //设置单步方向 
0020ca  f1b80f00          CMP      r8,#0
0020ce  dd02              BLE      |L1.8406|
0020d0  2001              MOVS     r0,#1
0020d2  9001              STR      r0,[sp,#4]
0020d4  e00a              B        |L1.8428|
                  |L1.8406|
;;;1379   	else if(delta_x==0)incx=0;//垂直线 
0020d6  f1b80f00          CMP      r8,#0
0020da  d102              BNE      |L1.8418|
0020dc  2000              MOVS     r0,#0
0020de  9001              STR      r0,[sp,#4]
0020e0  e004              B        |L1.8428|
                  |L1.8418|
;;;1380   	else {incx=-1;delta_x=-delta_x;} 
0020e2  f04f30ff          MOV      r0,#0xffffffff
0020e6  9001              STR      r0,[sp,#4]
0020e8  f1c80800          RSB      r8,r8,#0
                  |L1.8428|
;;;1381   	if(delta_y>0)incy=1; 
0020ec  f1b90f00          CMP      r9,#0
0020f0  dd02              BLE      |L1.8440|
0020f2  f04f0a01          MOV      r10,#1
0020f6  e009              B        |L1.8460|
                  |L1.8440|
;;;1382   	else if(delta_y==0)incy=0;//水平线 
0020f8  f1b90f00          CMP      r9,#0
0020fc  d102              BNE      |L1.8452|
0020fe  f04f0a00          MOV      r10,#0
002102  e003              B        |L1.8460|
                  |L1.8452|
;;;1383   	else{incy=-1;delta_y=-delta_y;} 
002104  f04f3aff          MOV      r10,#0xffffffff
002108  f1c90900          RSB      r9,r9,#0
                  |L1.8460|
;;;1384   	if( delta_x>delta_y)distance=delta_x; //选取基本增量坐标轴 
00210c  45c8              CMP      r8,r9
00210e  dd02              BLE      |L1.8470|
002110  f8cd8008          STR      r8,[sp,#8]
002114  e001              B        |L1.8474|
                  |L1.8470|
;;;1385   	else distance=delta_y; 
002116  f8cd9008          STR      r9,[sp,#8]
                  |L1.8474|
;;;1386   	for(t=0;t<=distance+1;t++ )//画线输出 
00211a  2700              MOVS     r7,#0
00211c  e022              B        |L1.8548|
                  |L1.8478|
;;;1387   	{  
;;;1388   		LCD_DrawPoint(uRow,uCol);//画点 
00211e  9800              LDR      r0,[sp,#0]
002120  b281              UXTH     r1,r0
002122  fa1ff08b          UXTH     r0,r11
002126  f7fffffe          BL       LCD_DrawPoint
;;;1389   		xerr+=delta_x ; 
00212a  9804              LDR      r0,[sp,#0x10]
00212c  4440              ADD      r0,r0,r8
00212e  9004              STR      r0,[sp,#0x10]
;;;1390   		yerr+=delta_y ; 
002130  9803              LDR      r0,[sp,#0xc]
002132  4448              ADD      r0,r0,r9
002134  9003              STR      r0,[sp,#0xc]
;;;1391   		if(xerr>distance) 
002136  9902              LDR      r1,[sp,#8]
002138  9804              LDR      r0,[sp,#0x10]
00213a  4288              CMP      r0,r1
00213c  dd05              BLE      |L1.8522|
;;;1392   		{ 
;;;1393   			xerr-=distance; 
00213e  9904              LDR      r1,[sp,#0x10]
002140  9802              LDR      r0,[sp,#8]
002142  1a08              SUBS     r0,r1,r0
002144  9004              STR      r0,[sp,#0x10]
;;;1394   			uRow+=incx; 
002146  9801              LDR      r0,[sp,#4]
002148  4483              ADD      r11,r11,r0
                  |L1.8522|
;;;1395   		} 
;;;1396   		if(yerr>distance) 
00214a  e9dd1002          LDRD     r1,r0,[sp,#8]
00214e  4288              CMP      r0,r1
002150  dd06              BLE      |L1.8544|
;;;1397   		{ 
;;;1398   			yerr-=distance; 
002152  e9dd1002          LDRD     r1,r0,[sp,#8]
002156  1a40              SUBS     r0,r0,r1
002158  9003              STR      r0,[sp,#0xc]
;;;1399   			uCol+=incy; 
00215a  9800              LDR      r0,[sp,#0]
00215c  4450              ADD      r0,r0,r10
00215e  9000              STR      r0,[sp,#0]
                  |L1.8544|
002160  1c78              ADDS     r0,r7,#1              ;1386
002162  b287              UXTH     r7,r0                 ;1386
                  |L1.8548|
002164  9802              LDR      r0,[sp,#8]            ;1386
002166  1c40              ADDS     r0,r0,#1              ;1386
002168  4287              CMP      r7,r0                 ;1386
00216a  ddd8              BLE      |L1.8478|
;;;1400   		} 
;;;1401   	}  
;;;1402   }    
00216c  b009              ADD      sp,sp,#0x24
00216e  e8bd8ff0          POP      {r4-r11,pc}
;;;1403   //画矩形	  
                          ENDP

                  LCD_DrawRectangle PROC
;;;1404   //(x1,y1),(x2,y2):矩形的对角坐标
;;;1405   void LCD_DrawRectangle(u16 x1, u16 y1, u16 x2, u16 y2)
002172  b5f0              PUSH     {r4-r7,lr}
;;;1406   {
002174  4604              MOV      r4,r0
002176  460d              MOV      r5,r1
002178  4616              MOV      r6,r2
00217a  461f              MOV      r7,r3
;;;1407   	LCD_DrawLine(x1,y1,x2,y1);
00217c  462b              MOV      r3,r5
00217e  4632              MOV      r2,r6
002180  4629              MOV      r1,r5
002182  4620              MOV      r0,r4
002184  f7fffffe          BL       LCD_DrawLine
;;;1408   	LCD_DrawLine(x1,y1,x1,y2);
002188  463b              MOV      r3,r7
00218a  4622              MOV      r2,r4
00218c  4629              MOV      r1,r5
00218e  4620              MOV      r0,r4
002190  f7fffffe          BL       LCD_DrawLine
;;;1409   	LCD_DrawLine(x1,y2,x2,y2);
002194  463b              MOV      r3,r7
002196  4632              MOV      r2,r6
002198  4639              MOV      r1,r7
00219a  4620              MOV      r0,r4
00219c  f7fffffe          BL       LCD_DrawLine
;;;1410   	LCD_DrawLine(x2,y1,x2,y2);
0021a0  463b              MOV      r3,r7
0021a2  4632              MOV      r2,r6
0021a4  4629              MOV      r1,r5
0021a6  4630              MOV      r0,r6
0021a8  f7fffffe          BL       LCD_DrawLine
;;;1411   }
0021ac  bdf0              POP      {r4-r7,pc}
;;;1412   //在指定位置画一个指定大小的圆
                          ENDP

                  Draw_Circle PROC
;;;1414   //r    :半径
;;;1415   void Draw_Circle(u16 x0,u16 y0,u8 r)
0021ae  e92d43f0          PUSH     {r4-r9,lr}
;;;1416   {
0021b2  4604              MOV      r4,r0
0021b4  460d              MOV      r5,r1
0021b6  4616              MOV      r6,r2
;;;1417   	int a,b;
;;;1418   	int di;
;;;1419   	a=0;b=r;	  
0021b8  2700              MOVS     r7,#0
0021ba  46b0              MOV      r8,r6
;;;1420   	di=3-(r<<1);             //判断下个点位置的标志
0021bc  2003              MOVS     r0,#3
0021be  eba00946          SUB      r9,r0,r6,LSL #1
;;;1421   	while(a<=b)
0021c2  e046              B        |L1.8786|
                  |L1.8644|
;;;1422   	{
;;;1423   		LCD_DrawPoint(x0+a,y0-b);             //5
0021c4  eba50208          SUB      r2,r5,r8
0021c8  b291              UXTH     r1,r2
0021ca  19e2              ADDS     r2,r4,r7
0021cc  b290              UXTH     r0,r2
0021ce  f7fffffe          BL       LCD_DrawPoint
;;;1424    		LCD_DrawPoint(x0+b,y0-a);             //0           
0021d2  1bea              SUBS     r2,r5,r7
0021d4  b291              UXTH     r1,r2
0021d6  eb040208          ADD      r2,r4,r8
0021da  b290              UXTH     r0,r2
0021dc  f7fffffe          BL       LCD_DrawPoint
;;;1425   		LCD_DrawPoint(x0+b,y0+a);             //4               
0021e0  19ea              ADDS     r2,r5,r7
0021e2  b291              UXTH     r1,r2
0021e4  eb040208          ADD      r2,r4,r8
0021e8  b290              UXTH     r0,r2
0021ea  f7fffffe          BL       LCD_DrawPoint
;;;1426   		LCD_DrawPoint(x0+a,y0+b);             //6 
0021ee  eb050208          ADD      r2,r5,r8
0021f2  b291              UXTH     r1,r2
0021f4  19e2              ADDS     r2,r4,r7
0021f6  b290              UXTH     r0,r2
0021f8  f7fffffe          BL       LCD_DrawPoint
;;;1427   		LCD_DrawPoint(x0-a,y0+b);             //1       
0021fc  eb050208          ADD      r2,r5,r8
002200  b291              UXTH     r1,r2
002202  1be2              SUBS     r2,r4,r7
002204  b290              UXTH     r0,r2
002206  f7fffffe          BL       LCD_DrawPoint
;;;1428    		LCD_DrawPoint(x0-b,y0+a);             
00220a  19ea              ADDS     r2,r5,r7
00220c  b291              UXTH     r1,r2
00220e  eba40208          SUB      r2,r4,r8
002212  b290              UXTH     r0,r2
002214  f7fffffe          BL       LCD_DrawPoint
;;;1429   		LCD_DrawPoint(x0-a,y0-b);             //2             
002218  eba50208          SUB      r2,r5,r8
00221c  b291              UXTH     r1,r2
00221e  1be2              SUBS     r2,r4,r7
002220  b290              UXTH     r0,r2
002222  f7fffffe          BL       LCD_DrawPoint
;;;1430     		LCD_DrawPoint(x0-b,y0-a);             //7     	         
002226  1bea              SUBS     r2,r5,r7
002228  b291              UXTH     r1,r2
00222a  eba40208          SUB      r2,r4,r8
00222e  b290              UXTH     r0,r2
002230  f7fffffe          BL       LCD_DrawPoint
;;;1431   		a++;
002234  1c7f              ADDS     r7,r7,#1
;;;1432   		//使用Bresenham算法画圆     
;;;1433   		if(di<0)di +=4*a+6;	  
002236  f1b90f00          CMP      r9,#0
00223a  da03              BGE      |L1.8772|
00223c  00b8              LSLS     r0,r7,#2
00223e  1d80              ADDS     r0,r0,#6
002240  4481              ADD      r9,r9,r0
002242  e006              B        |L1.8786|
                  |L1.8772|
;;;1434   		else
;;;1435   		{
;;;1436   			di+=10+4*(a-b);   
002244  eba70008          SUB      r0,r7,r8
002248  0080              LSLS     r0,r0,#2
00224a  300a              ADDS     r0,r0,#0xa
00224c  4481              ADD      r9,r9,r0
;;;1437   			b--;
00224e  f1a80801          SUB      r8,r8,#1
                  |L1.8786|
002252  4547              CMP      r7,r8                 ;1421
002254  ddb6              BLE      |L1.8644|
;;;1438   		} 						    
;;;1439   	}
;;;1440   } 									  
002256  e8bd83f0          POP      {r4-r9,pc}
;;;1441   //在指定位置显示一个字符
                          ENDP

                  LCD_ShowChar PROC
;;;1445   //mode:叠加方式(1)还是非叠加方式(0)
;;;1446   void LCD_ShowChar(u16 x,u16 y,u8 num,u8 size,u8 mode)
00225a  e92d4ff8          PUSH     {r3-r11,lr}
;;;1447   {  							  
00225e  4604              MOV      r4,r0
002260  460d              MOV      r5,r1
002262  4616              MOV      r6,r2
002264  461f              MOV      r7,r3
;;;1448       u8 temp,t1,t;
;;;1449   	u16 y0=y;
002266  9500              STR      r5,[sp,#0]
;;;1450   	u16 colortemp=POINT_COLOR;      			     
002268  4880              LDR      r0,|L1.9324|
00226a  f8b0b000          LDRH     r11,[r0,#0]  ; POINT_COLOR
;;;1451   	//设置窗口		   
;;;1452   	num=num-' ';//得到偏移后的值
00226e  f1a60020          SUB      r0,r6,#0x20
002272  b2c6              UXTB     r6,r0
;;;1453   	if(!mode) //非叠加方式
002274  980a              LDR      r0,[sp,#0x28]
002276  2800              CMP      r0,#0
002278  d150              BNE      |L1.8988|
;;;1454   	{
;;;1455   	    for(t=0;t<size;t++)
00227a  4682              MOV      r10,r0
00227c  e04b              B        |L1.8982|
                  |L1.8830|
;;;1456   	    {   
;;;1457   			if(size==12)temp=asc2_1206[num][t];  //调用1206字体
00227e  2f0c              CMP      r7,#0xc
002280  d107              BNE      |L1.8850|
002282  eb060046          ADD      r0,r6,r6,LSL #1
002286  497a              LDR      r1,|L1.9328|
002288  eb010080          ADD      r0,r1,r0,LSL #2
00228c  f810800a          LDRB     r8,[r0,r10]
002290  e004              B        |L1.8860|
                  |L1.8850|
;;;1458   			else temp=asc2_1608[num][t];		 //调用1608字体 	                          
002292  4878              LDR      r0,|L1.9332|
002294  eb001006          ADD      r0,r0,r6,LSL #4
002298  f810800a          LDRB     r8,[r0,r10]
                  |L1.8860|
;;;1459   	        for(t1=0;t1<8;t1++)
00229c  f04f0900          MOV      r9,#0
0022a0  e031              B        |L1.8966|
                  |L1.8866|
;;;1460   			{			    
;;;1461   		        if(temp&0x80)POINT_COLOR=colortemp;
0022a2  f0180f80          TST      r8,#0x80
0022a6  d003              BEQ      |L1.8880|
0022a8  4870              LDR      r0,|L1.9324|
0022aa  f8a0b000          STRH     r11,[r0,#0]
0022ae  e003              B        |L1.8888|
                  |L1.8880|
;;;1462   				else POINT_COLOR=BACK_COLOR;
0022b0  4871              LDR      r0,|L1.9336|
0022b2  8800              LDRH     r0,[r0,#0]  ; BACK_COLOR
0022b4  496d              LDR      r1,|L1.9324|
0022b6  8008              STRH     r0,[r1,#0]
                  |L1.8888|
;;;1463   				LCD_DrawPoint(x,y);	
0022b8  4629              MOV      r1,r5
0022ba  4620              MOV      r0,r4
0022bc  f7fffffe          BL       LCD_DrawPoint
;;;1464   				temp<<=1;
0022c0  ea4f6048          LSL      r0,r8,#25
0022c4  ea4f6810          LSR      r8,r0,#24
;;;1465   				y++;
0022c8  1c68              ADDS     r0,r5,#1
0022ca  b285              UXTH     r5,r0
;;;1466   				if(x>=lcddev.width){POINT_COLOR=colortemp;return;}//超区域了
0022cc  486b              LDR      r0,|L1.9340|
0022ce  8800              LDRH     r0,[r0,#0]  ; lcddev
0022d0  42a0              CMP      r0,r4
0022d2  dc04              BGT      |L1.8926|
0022d4  4865              LDR      r0,|L1.9324|
0022d6  f8a0b000          STRH     r11,[r0,#0]
                  |L1.8922|
;;;1467   				if((y-y0)==size)
;;;1468   				{
;;;1469   					y=y0;
;;;1470   					x++;
;;;1471   					if(x>=lcddev.width){POINT_COLOR=colortemp;return;}//超区域了
;;;1472   					break;
;;;1473   				}
;;;1474   			}  	 
;;;1475   	    }    
;;;1476   	}else//叠加方式
;;;1477   	{
;;;1478   	    for(t=0;t<size;t++)
;;;1479   	    {   
;;;1480   			if(size==12)temp=asc2_1206[num][t];  //调用1206字体
;;;1481   			else temp=asc2_1608[num][t];		 //调用1608字体 	                          
;;;1482   	        for(t1=0;t1<8;t1++)
;;;1483   			{			    
;;;1484   		        if(temp&0x80)LCD_DrawPoint(x,y); 
;;;1485   				temp<<=1;
;;;1486   				y++;
;;;1487   				if(x>=lcddev.height){POINT_COLOR=colortemp;return;}//超区域了
;;;1488   				if((y-y0)==size)
;;;1489   				{
;;;1490   					y=y0;
;;;1491   					x++;
;;;1492   					if(x>=lcddev.width){POINT_COLOR=colortemp;return;}//超区域了
;;;1493   					break;
;;;1494   				}
;;;1495   			}  	 
;;;1496   	    }     
;;;1497   	}
;;;1498   	POINT_COLOR=colortemp;	    	   	 	  
;;;1499   }   
0022da  e8bd8ff8          POP      {r3-r11,pc}
                  |L1.8926|
0022de  9800              LDR      r0,[sp,#0]            ;1467
0022e0  1a28              SUBS     r0,r5,r0              ;1467
0022e2  42b8              CMP      r0,r7                 ;1467
0022e4  d10b              BNE      |L1.8958|
0022e6  9d00              LDR      r5,[sp,#0]            ;1469
0022e8  1c60              ADDS     r0,r4,#1              ;1470
0022ea  b284              UXTH     r4,r0                 ;1470
0022ec  4863              LDR      r0,|L1.9340|
0022ee  8800              LDRH     r0,[r0,#0]            ;1471  ; lcddev
0022f0  42a0              CMP      r0,r4                 ;1471
0022f2  dc03              BGT      |L1.8956|
0022f4  485d              LDR      r0,|L1.9324|
0022f6  f8a0b000          STRH     r11,[r0,#0]           ;1471
0022fa  e7ee              B        |L1.8922|
                  |L1.8956|
0022fc  e006              B        |L1.8972|
                  |L1.8958|
0022fe  f1090001          ADD      r0,r9,#1              ;1459
002302  f00009ff          AND      r9,r0,#0xff           ;1459
                  |L1.8966|
002306  f1b90f08          CMP      r9,#8                 ;1459
00230a  dbca              BLT      |L1.8866|
                  |L1.8972|
00230c  bf00              NOP                            ;1472
00230e  f10a0001          ADD      r0,r10,#1             ;1455
002312  f0000aff          AND      r10,r0,#0xff          ;1455
                  |L1.8982|
002316  45ba              CMP      r10,r7                ;1455
002318  dbb1              BLT      |L1.8830|
00231a  e047              B        |L1.9132|
                  |L1.8988|
00231c  f04f0a00          MOV      r10,#0                ;1478
002320  e042              B        |L1.9128|
                  |L1.8994|
002322  2f0c              CMP      r7,#0xc               ;1480
002324  d107              BNE      |L1.9014|
002326  eb060046          ADD      r0,r6,r6,LSL #1       ;1480
00232a  4951              LDR      r1,|L1.9328|
00232c  eb010080          ADD      r0,r1,r0,LSL #2       ;1480
002330  f810800a          LDRB     r8,[r0,r10]           ;1480
002334  e004              B        |L1.9024|
                  |L1.9014|
002336  484f              LDR      r0,|L1.9332|
002338  eb001006          ADD      r0,r0,r6,LSL #4       ;1481
00233c  f810800a          LDRB     r8,[r0,r10]           ;1481
                  |L1.9024|
002340  f04f0900          MOV      r9,#0                 ;1482
002344  e028              B        |L1.9112|
                  |L1.9030|
002346  f0180f80          TST      r8,#0x80              ;1484
00234a  d003              BEQ      |L1.9044|
00234c  4629              MOV      r1,r5                 ;1484
00234e  4620              MOV      r0,r4                 ;1484
002350  f7fffffe          BL       LCD_DrawPoint
                  |L1.9044|
002354  ea4f6048          LSL      r0,r8,#25             ;1485
002358  ea4f6810          LSR      r8,r0,#24             ;1485
00235c  1c68              ADDS     r0,r5,#1              ;1486
00235e  b285              UXTH     r5,r0                 ;1486
002360  4846              LDR      r0,|L1.9340|
002362  8840              LDRH     r0,[r0,#2]            ;1487  ; lcddev
002364  42a0              CMP      r0,r4                 ;1487
002366  dc03              BGT      |L1.9072|
002368  4840              LDR      r0,|L1.9324|
00236a  f8a0b000          STRH     r11,[r0,#0]           ;1487
00236e  e7b4              B        |L1.8922|
                  |L1.9072|
002370  9800              LDR      r0,[sp,#0]            ;1488
002372  1a28              SUBS     r0,r5,r0              ;1488
002374  42b8              CMP      r0,r7                 ;1488
002376  d10b              BNE      |L1.9104|
002378  9d00              LDR      r5,[sp,#0]            ;1490
00237a  1c60              ADDS     r0,r4,#1              ;1491
00237c  b284              UXTH     r4,r0                 ;1491
00237e  483f              LDR      r0,|L1.9340|
002380  8800              LDRH     r0,[r0,#0]            ;1492  ; lcddev
002382  42a0              CMP      r0,r4                 ;1492
002384  dc03              BGT      |L1.9102|
002386  4839              LDR      r0,|L1.9324|
002388  f8a0b000          STRH     r11,[r0,#0]           ;1492
00238c  e7a5              B        |L1.8922|
                  |L1.9102|
00238e  e006              B        |L1.9118|
                  |L1.9104|
002390  f1090001          ADD      r0,r9,#1              ;1482
002394  f00009ff          AND      r9,r0,#0xff           ;1482
                  |L1.9112|
002398  f1b90f08          CMP      r9,#8                 ;1482
00239c  dbd3              BLT      |L1.9030|
                  |L1.9118|
00239e  bf00              NOP                            ;1493
0023a0  f10a0001          ADD      r0,r10,#1             ;1478
0023a4  f0000aff          AND      r10,r0,#0xff          ;1478
                  |L1.9128|
0023a8  45ba              CMP      r10,r7                ;1478
0023aa  dbba              BLT      |L1.8994|
                  |L1.9132|
0023ac  482f              LDR      r0,|L1.9324|
0023ae  f8a0b000          STRH     r11,[r0,#0]           ;1498
0023b2  e792              B        |L1.8922|
;;;1500   //m^n函数
                          ENDP

                  LCD_Pow PROC
;;;1501   //返回值:m^n次方.
;;;1502   u32 LCD_Pow(u8 m,u8 n)
0023b4  b510              PUSH     {r4,lr}
;;;1503   {
0023b6  4602              MOV      r2,r0
;;;1504   	u32 result=1;	 
0023b8  2001              MOVS     r0,#1
;;;1505   	while(n--)result*=m;    
0023ba  e000              B        |L1.9150|
                  |L1.9148|
0023bc  4350              MULS     r0,r2,r0
                  |L1.9150|
0023be  000b              MOVS     r3,r1
0023c0  f1a10401          SUB      r4,r1,#1
0023c4  b2e1              UXTB     r1,r4
0023c6  d1f9              BNE      |L1.9148|
;;;1506   	return result;
;;;1507   }			 
0023c8  bd10              POP      {r4,pc}
;;;1508   //显示数字,高位为0,则不显示
                          ENDP

                  LCD_ShowNum PROC
;;;1513   //num:数值(0~4294967295);	 
;;;1514   void LCD_ShowNum(u16 x,u16 y,u32 num,u8 len,u8 size)
0023ca  e92d4fff          PUSH     {r0-r11,lr}
;;;1515   {         	
0023ce  b081              SUB      sp,sp,#4
0023d0  4604              MOV      r4,r0
0023d2  4615              MOV      r5,r2
0023d4  461e              MOV      r6,r3
0023d6  9f0e              LDR      r7,[sp,#0x38]
;;;1516   	u8 t,temp;
;;;1517   	u8 enshow=0;						   
0023d8  f04f0a00          MOV      r10,#0
;;;1518   	for(t=0;t<len;t++)
0023dc  46d0              MOV      r8,r10
0023de  e03e              B        |L1.9310|
                  |L1.9184|
;;;1519   	{
;;;1520   		temp=(num/LCD_Pow(10,len-t-1))%10;
0023e0  eba60008          SUB      r0,r6,r8
0023e4  1e40              SUBS     r0,r0,#1
0023e6  b2c1              UXTB     r1,r0
0023e8  200a              MOVS     r0,#0xa
0023ea  f7fffffe          BL       LCD_Pow
0023ee  fbb5f0f0          UDIV     r0,r5,r0
0023f2  210a              MOVS     r1,#0xa
0023f4  fbb0f2f1          UDIV     r2,r0,r1
0023f8  fb010012          MLS      r0,r1,r2,r0
0023fc  f00009ff          AND      r9,r0,#0xff
;;;1521   		if(enshow==0&&t<(len-1))
002400  f1ba0f00          CMP      r10,#0
002404  d116              BNE      |L1.9268|
002406  1e70              SUBS     r0,r6,#1
002408  4540              CMP      r0,r8
00240a  dd13              BLE      |L1.9268|
;;;1522   		{
;;;1523   			if(temp==0)
00240c  f1b90f00          CMP      r9,#0
002410  d10e              BNE      |L1.9264|
;;;1524   			{
;;;1525   				LCD_ShowChar(x+(size/2)*t,y,' ',size,0);
002412  2300              MOVS     r3,#0
002414  46bb              MOV      r11,r7
002416  eb0771d7          ADD      r1,r7,r7,LSR #31
00241a  1049              ASRS     r1,r1,#1
00241c  fb014108          MLA      r1,r1,r8,r4
002420  b288              UXTH     r0,r1
002422  9300              STR      r3,[sp,#0]
002424  463b              MOV      r3,r7
002426  2220              MOVS     r2,#0x20
002428  9902              LDR      r1,[sp,#8]
00242a  f7fffffe          BL       LCD_ShowChar
;;;1526   				continue;
00242e  e012              B        |L1.9302|
                  |L1.9264|
;;;1527   			}else enshow=1; 
002430  f04f0a01          MOV      r10,#1
                  |L1.9268|
;;;1528   		 	 
;;;1529   		}
;;;1530   	 	LCD_ShowChar(x+(size/2)*t,y,temp+'0',size,0); 
002434  2300              MOVS     r3,#0
002436  46bb              MOV      r11,r7
002438  eb0771d7          ADD      r1,r7,r7,LSR #31
00243c  1049              ASRS     r1,r1,#1
00243e  fb014108          MLA      r1,r1,r8,r4
002442  b288              UXTH     r0,r1
002444  9300              STR      r3,[sp,#0]
002446  463b              MOV      r3,r7
002448  f1090130          ADD      r1,r9,#0x30
00244c  b2ca              UXTB     r2,r1
00244e  9902              LDR      r1,[sp,#8]
002450  f7fffffe          BL       LCD_ShowChar
002454  bf00              NOP                            ;1526
                  |L1.9302|
002456  f1080001          ADD      r0,r8,#1              ;1518
00245a  f00008ff          AND      r8,r0,#0xff           ;1518
                  |L1.9310|
00245e  45b0              CMP      r8,r6                 ;1518
002460  dbbe              BLT      |L1.9184|
;;;1531   	}
;;;1532   } 
002462  b005              ADD      sp,sp,#0x14
002464  e8bd8ff0          POP      {r4-r11,pc}
                  |L1.9320|
                          DCD      0x6c000800
                  |L1.9324|
                          DCD      POINT_COLOR
                  |L1.9328|
                          DCD      asc2_1206
                  |L1.9332|
                          DCD      asc2_1608
                  |L1.9336|
                          DCD      BACK_COLOR
                  |L1.9340|
                          DCD      lcddev
                          ENDP

                  LCD_ShowxNum PROC
;;;1541   //[0]:0,非叠加显示;1,叠加显示.
;;;1542   void LCD_ShowxNum(u16 x,u16 y,u32 num,u8 len,u8 size,u8 mode)
002480  e92d4fff          PUSH     {r0-r11,lr}
;;;1543   {  
002484  b082              SUB      sp,sp,#8
002486  4604              MOV      r4,r0
002488  4615              MOV      r5,r2
00248a  461e              MOV      r6,r3
00248c  e9dd780f          LDRD     r7,r8,[sp,#0x3c]
;;;1544   	u8 t,temp;
;;;1545   	u8 enshow=0;						   
002490  2000              MOVS     r0,#0
002492  9001              STR      r0,[sp,#4]
;;;1546   	for(t=0;t<len;t++)
002494  4681              MOV      r9,r0
002496  e052              B        |L1.9534|
                  |L1.9368|
;;;1547   	{
;;;1548   		temp=(num/LCD_Pow(10,len-t-1))%10;
002498  eba60009          SUB      r0,r6,r9
00249c  1e40              SUBS     r0,r0,#1
00249e  b2c1              UXTB     r1,r0
0024a0  200a              MOVS     r0,#0xa
0024a2  f7fffffe          BL       LCD_Pow
0024a6  fbb5f0f0          UDIV     r0,r5,r0
0024aa  210a              MOVS     r1,#0xa
0024ac  fbb0f2f1          UDIV     r2,r0,r1
0024b0  fb010012          MLS      r0,r1,r2,r0
0024b4  f0000aff          AND      r10,r0,#0xff
;;;1549   		if(enshow==0&&t<(len-1))
0024b8  9801              LDR      r0,[sp,#4]
0024ba  bb50              CBNZ     r0,|L1.9490|
0024bc  1e70              SUBS     r0,r6,#1
0024be  4548              CMP      r0,r9
0024c0  dd27              BLE      |L1.9490|
;;;1550   		{
;;;1551   			if(temp==0)
0024c2  f1ba0f00          CMP      r10,#0
0024c6  d122              BNE      |L1.9486|
;;;1552   			{
;;;1553   				if(mode&0X80)LCD_ShowChar(x+(size/2)*t,y,'0',size,mode&0X01);  
0024c8  f0180f80          TST      r8,#0x80
0024cc  d00f              BEQ      |L1.9454|
0024ce  f0080301          AND      r3,r8,#1
0024d2  46bb              MOV      r11,r7
0024d4  eb0771d7          ADD      r1,r7,r7,LSR #31
0024d8  1049              ASRS     r1,r1,#1
0024da  fb014109          MLA      r1,r1,r9,r4
0024de  b288              UXTH     r0,r1
0024e0  9300              STR      r3,[sp,#0]
0024e2  463b              MOV      r3,r7
0024e4  2230              MOVS     r2,#0x30
0024e6  9903              LDR      r1,[sp,#0xc]
0024e8  f7fffffe          BL       LCD_ShowChar
0024ec  e00e              B        |L1.9484|
                  |L1.9454|
;;;1554   				else LCD_ShowChar(x+(size/2)*t,y,' ',size,mode&0X01);  
0024ee  f0080301          AND      r3,r8,#1
0024f2  46bb              MOV      r11,r7
0024f4  eb0771d7          ADD      r1,r7,r7,LSR #31
0024f8  1049              ASRS     r1,r1,#1
0024fa  fb014109          MLA      r1,r1,r9,r4
0024fe  b288              UXTH     r0,r1
002500  9300              STR      r3,[sp,#0]
002502  463b              MOV      r3,r7
002504  2220              MOVS     r2,#0x20
002506  9903              LDR      r1,[sp,#0xc]
002508  f7fffffe          BL       LCD_ShowChar
                  |L1.9484|
;;;1555    				continue;
00250c  e013              B        |L1.9526|
                  |L1.9486|
;;;1556   			}else enshow=1; 
00250e  2001              MOVS     r0,#1
002510  9001              STR      r0,[sp,#4]
                  |L1.9490|
;;;1557   		 	 
;;;1558   		}
;;;1559   	 	LCD_ShowChar(x+(size/2)*t,y,temp+'0',size,mode&0X01); 
002512  f0080301          AND      r3,r8,#1
002516  46bb              MOV      r11,r7
002518  eb0771d7          ADD      r1,r7,r7,LSR #31
00251c  1049              ASRS     r1,r1,#1
00251e  fb014109          MLA      r1,r1,r9,r4
002522  b288              UXTH     r0,r1
002524  9300              STR      r3,[sp,#0]
002526  463b              MOV      r3,r7
002528  f10a0130          ADD      r1,r10,#0x30
00252c  b2ca              UXTB     r2,r1
00252e  9903              LDR      r1,[sp,#0xc]
002530  f7fffffe          BL       LCD_ShowChar
002534  bf00              NOP                            ;1555
                  |L1.9526|
002536  f1090001          ADD      r0,r9,#1              ;1546
00253a  f00009ff          AND      r9,r0,#0xff           ;1546
                  |L1.9534|
00253e  45b1              CMP      r9,r6                 ;1546
002540  dbaa              BLT      |L1.9368|
;;;1560   	}
;;;1561   } 
002542  b006              ADD      sp,sp,#0x18
002544  e8bd8ff0          POP      {r4-r11,pc}
;;;1562   //显示字符串
                          ENDP

                  LCD_ShowString PROC
;;;1566   //*p:字符串起始地址		  
;;;1567   void LCD_ShowString(u16 x,u16 y,u16 width,u16 height,u8 size,u8 *p)
002548  e92d47f8          PUSH     {r3-r10,lr}
;;;1568   {         
00254c  4604              MOV      r4,r0
00254e  460d              MOV      r5,r1
002550  4616              MOV      r6,r2
002552  461f              MOV      r7,r3
002554  e9dd8909          LDRD     r8,r9,[sp,#0x24]
;;;1569   	u8 x0=x;
002558  f0040aff          AND      r10,r4,#0xff
;;;1570   	width+=x;
00255c  1930              ADDS     r0,r6,r4
00255e  b286              UXTH     r6,r0
;;;1571   	height+=y;
002560  1978              ADDS     r0,r7,r5
002562  b287              UXTH     r7,r0
;;;1572       while((*p<='~')&&(*p>=' '))//判断是不是非法字符!
002564  e019              B        |L1.9626|
                  |L1.9574|
;;;1573       {       
;;;1574           if(x>=width){x=x0;y+=size;}
002566  42b4              CMP      r4,r6
002568  db03              BLT      |L1.9586|
00256a  4654              MOV      r4,r10
00256c  eb050008          ADD      r0,r5,r8
002570  b285              UXTH     r5,r0
                  |L1.9586|
;;;1575           if(y>=height)break;//退出
002572  42bd              CMP      r5,r7
002574  db00              BLT      |L1.9592|
002576  e018              B        |L1.9642|
                  |L1.9592|
;;;1576           LCD_ShowChar(x,y,*p,size,0);
002578  2300              MOVS     r3,#0
00257a  9300              STR      r3,[sp,#0]
00257c  f8992000          LDRB     r2,[r9,#0]
002580  4643              MOV      r3,r8
002582  4629              MOV      r1,r5
002584  4620              MOV      r0,r4
002586  f7fffffe          BL       LCD_ShowChar
;;;1577           x+=size/2;
00258a  4640              MOV      r0,r8
00258c  eb0871d8          ADD      r1,r8,r8,LSR #31
002590  eb040161          ADD      r1,r4,r1,ASR #1
002594  b28c              UXTH     r4,r1
;;;1578           p++;
002596  f1090901          ADD      r9,r9,#1
                  |L1.9626|
00259a  f8990000          LDRB     r0,[r9,#0]            ;1572
00259e  287e              CMP      r0,#0x7e              ;1572
0025a0  dc03              BGT      |L1.9642|
0025a2  f8990000          LDRB     r0,[r9,#0]            ;1572
0025a6  2820              CMP      r0,#0x20              ;1572
0025a8  dadd              BGE      |L1.9574|
                  |L1.9642|
0025aa  bf00              NOP                            ;1575
;;;1579       }  
;;;1580   }
0025ac  e8bd87f8          POP      {r3-r10,pc}
;;;1581   
                          ENDP


                          AREA ||.bss||, DATA, NOINIT, ALIGN=1

                  lcddev
                          %        10

                          AREA ||.constdata||, DATA, READONLY, ALIGN=0

                  asc2_1206
000000  00000000          DCB      0x00,0x00,0x00,0x00
000004  00000000          DCB      0x00,0x00,0x00,0x00
000008  00000000          DCB      0x00,0x00,0x00,0x00
00000c  00000000          DCB      0x00,0x00,0x00,0x00
000010  3f400000          DCB      0x3f,0x40,0x00,0x00
000014  00000000          DCB      0x00,0x00,0x00,0x00
000018  00003000          DCB      0x00,0x00,0x30,0x00
00001c  40003000          DCB      0x40,0x00,0x30,0x00
000020  40000000          DCB      0x40,0x00,0x00,0x00
000024  09000bc0          DCB      0x09,0x00,0x0b,0xc0
000028  3d000bc0          DCB      0x3d,0x00,0x0b,0xc0
00002c  3d000900          DCB      0x3d,0x00,0x09,0x00
000030  18c02440          DCB      0x18,0xc0,0x24,0x40
000034  7fe02240          DCB      0x7f,0xe0,0x22,0x40
000038  31800000          DCB      0x31,0x80,0x00,0x00
00003c  180024c0          DCB      0x18,0x00,0x24,0xc0
000040  1b000d80          DCB      0x1b,0x00,0x0d,0x80
000044  32400180          DCB      0x32,0x40,0x01,0x80
000048  03801c40          DCB      0x03,0x80,0x1c,0x40
00004c  27401c80          DCB      0x27,0x40,0x1c,0x80
000050  07400040          DCB      0x07,0x40,0x00,0x40
000054  10006000          DCB      0x10,0x00,0x60,0x00
000058  00000000          DCB      0x00,0x00,0x00,0x00
00005c  00000000          DCB      0x00,0x00,0x00,0x00
000060  00000000          DCB      0x00,0x00,0x00,0x00
000064  00001f80          DCB      0x00,0x00,0x1f,0x80
000068  20404020          DCB      0x20,0x40,0x40,0x20
00006c  00004020          DCB      0x00,0x00,0x40,0x20
000070  20401f80          DCB      0x20,0x40,0x1f,0x80
000074  00000000          DCB      0x00,0x00,0x00,0x00
000078  09000600          DCB      0x09,0x00,0x06,0x00
00007c  1f800600          DCB      0x1f,0x80,0x06,0x00
000080  09000000          DCB      0x09,0x00,0x00,0x00
000084  04000400          DCB      0x04,0x00,0x04,0x00
000088  3f800400          DCB      0x3f,0x80,0x04,0x00
00008c  04000000          DCB      0x04,0x00,0x00,0x00
000090  00100060          DCB      0x00,0x10,0x00,0x60
000094  00000000          DCB      0x00,0x00,0x00,0x00
000098  00000000          DCB      0x00,0x00,0x00,0x00
00009c  04000400          DCB      0x04,0x00,0x04,0x00
0000a0  04000400          DCB      0x04,0x00,0x04,0x00
0000a4  04000000          DCB      0x04,0x00,0x00,0x00
0000a8  00000040          DCB      0x00,0x00,0x00,0x40
0000ac  00000000          DCB      0x00,0x00,0x00,0x00
0000b0  00000000          DCB      0x00,0x00,0x00,0x00
0000b4  002001c0          DCB      0x00,0x20,0x01,0xc0
0000b8  06003800          DCB      0x06,0x00,0x38,0x00
0000bc  40000000          DCB      0x40,0x00,0x00,0x00
0000c0  1f802040          DCB      0x1f,0x80,0x20,0x40
0000c4  20402040          DCB      0x20,0x40,0x20,0x40
0000c8  1f800000          DCB      0x1f,0x80,0x00,0x00
0000cc  00001040          DCB      0x00,0x00,0x10,0x40
0000d0  3fc00040          DCB      0x3f,0xc0,0x00,0x40
0000d4  00000000          DCB      0x00,0x00,0x00,0x00
0000d8  18c02140          DCB      0x18,0xc0,0x21,0x40
0000dc  22402440          DCB      0x22,0x40,0x24,0x40
0000e0  18400000          DCB      0x18,0x40,0x00,0x00
0000e4  10802040          DCB      0x10,0x80,0x20,0x40
0000e8  24402440          DCB      0x24,0x40,0x24,0x40
0000ec  1b800000          DCB      0x1b,0x80,0x00,0x00
0000f0  02000d00          DCB      0x02,0x00,0x0d,0x00
0000f4  11003fc0          DCB      0x11,0x00,0x3f,0xc0
0000f8  01400000          DCB      0x01,0x40,0x00,0x00
0000fc  3c802440          DCB      0x3c,0x80,0x24,0x40
000100  24402440          DCB      0x24,0x40,0x24,0x40
000104  23800000          DCB      0x23,0x80,0x00,0x00
000108  1f802440          DCB      0x1f,0x80,0x24,0x40
00010c  24403440          DCB      0x24,0x40,0x34,0x40
000110  03800000          DCB      0x03,0x80,0x00,0x00
000114  30002000          DCB      0x30,0x00,0x20,0x00
000118  27c03800          DCB      0x27,0xc0,0x38,0x00
00011c  20000000          DCB      0x20,0x00,0x00,0x00
000120  1b802440          DCB      0x1b,0x80,0x24,0x40
000124  24402440          DCB      0x24,0x40,0x24,0x40
000128  1b800000          DCB      0x1b,0x80,0x00,0x00
00012c  1c0022c0          DCB      0x1c,0x00,0x22,0xc0
000130  22402240          DCB      0x22,0x40,0x22,0x40
000134  1f800000          DCB      0x1f,0x80,0x00,0x00
000138  00000000          DCB      0x00,0x00,0x00,0x00
00013c  08400000          DCB      0x08,0x40,0x00,0x00
000140  00000000          DCB      0x00,0x00,0x00,0x00
000144  00000000          DCB      0x00,0x00,0x00,0x00
000148  04600000          DCB      0x04,0x60,0x00,0x00
00014c  00000000          DCB      0x00,0x00,0x00,0x00
000150  00000400          DCB      0x00,0x00,0x04,0x00
000154  0a001100          DCB      0x0a,0x00,0x11,0x00
000158  20804040          DCB      0x20,0x80,0x40,0x40
00015c  09000900          DCB      0x09,0x00,0x09,0x00
000160  09000900          DCB      0x09,0x00,0x09,0x00
000164  09000000          DCB      0x09,0x00,0x00,0x00
000168  00004040          DCB      0x00,0x00,0x40,0x40
00016c  20801100          DCB      0x20,0x80,0x11,0x00
000170  0a000400          DCB      0x0a,0x00,0x04,0x00
000174  18002000          DCB      0x18,0x00,0x20,0x00
000178  23402400          DCB      0x23,0x40,0x24,0x00
00017c  18000000          DCB      0x18,0x00,0x00,0x00
000180  1f802040          DCB      0x1f,0x80,0x20,0x40
000184  27402940          DCB      0x27,0x40,0x29,0x40
000188  1f400000          DCB      0x1f,0x40,0x00,0x00
00018c  004007c0          DCB      0x00,0x40,0x07,0xc0
000190  39000f00          DCB      0x39,0x00,0x0f,0x00
000194  01c00040          DCB      0x01,0xc0,0x00,0x40
000198  20403fc0          DCB      0x20,0x40,0x3f,0xc0
00019c  24402440          DCB      0x24,0x40,0x24,0x40
0001a0  1b800000          DCB      0x1b,0x80,0x00,0x00
0001a4  1f802040          DCB      0x1f,0x80,0x20,0x40
0001a8  20402040          DCB      0x20,0x40,0x20,0x40
0001ac  30800000          DCB      0x30,0x80,0x00,0x00
0001b0  20403fc0          DCB      0x20,0x40,0x3f,0xc0
0001b4  20402040          DCB      0x20,0x40,0x20,0x40
0001b8  1f800000          DCB      0x1f,0x80,0x00,0x00
0001bc  20403fc0          DCB      0x20,0x40,0x3f,0xc0
0001c0  24402e40          DCB      0x24,0x40,0x2e,0x40
0001c4  30c00000          DCB      0x30,0xc0,0x00,0x00
0001c8  20403fc0          DCB      0x20,0x40,0x3f,0xc0
0001cc  24402e00          DCB      0x24,0x40,0x2e,0x00
0001d0  30000000          DCB      0x30,0x00,0x00,0x00
0001d4  0f001080          DCB      0x0f,0x00,0x10,0x80
0001d8  20402240          DCB      0x20,0x40,0x22,0x40
0001dc  33800200          DCB      0x33,0x80,0x02,0x00
0001e0  20403fc0          DCB      0x20,0x40,0x3f,0xc0
0001e4  04000400          DCB      0x04,0x00,0x04,0x00
0001e8  3fc02040          DCB      0x3f,0xc0,0x20,0x40
0001ec  20402040          DCB      0x20,0x40,0x20,0x40
0001f0  3fc02040          DCB      0x3f,0xc0,0x20,0x40
0001f4  20400000          DCB      0x20,0x40,0x00,0x00
0001f8  00602020          DCB      0x00,0x60,0x20,0x20
0001fc  20203fc0          DCB      0x20,0x20,0x3f,0xc0
000200  20002000          DCB      0x20,0x00,0x20,0x00
000204  20403fc0          DCB      0x20,0x40,0x3f,0xc0
000208  24400b00          DCB      0x24,0x40,0x0b,0x00
00020c  30c02040          DCB      0x30,0xc0,0x20,0x40
000210  20403fc0          DCB      0x20,0x40,0x3f,0xc0
000214  20400040          DCB      0x20,0x40,0x00,0x40
000218  004000c0          DCB      0x00,0x40,0x00,0xc0
00021c  3fc03c00          DCB      0x3f,0xc0,0x3c,0x00
000220  03c03c00          DCB      0x03,0xc0,0x3c,0x00
000224  3fc00000          DCB      0x3f,0xc0,0x00,0x00
000228  20403fc0          DCB      0x20,0x40,0x3f,0xc0
00022c  0c402300          DCB      0x0c,0x40,0x23,0x00
000230  3fc02000          DCB      0x3f,0xc0,0x20,0x00
000234  1f802040          DCB      0x1f,0x80,0x20,0x40
000238  20402040          DCB      0x20,0x40,0x20,0x40
00023c  1f800000          DCB      0x1f,0x80,0x00,0x00
000240  20403fc0          DCB      0x20,0x40,0x3f,0xc0
000244  24402400          DCB      0x24,0x40,0x24,0x00
000248  18000000          DCB      0x18,0x00,0x00,0x00
00024c  1f802140          DCB      0x1f,0x80,0x21,0x40
000250  214020e0          DCB      0x21,0x40,0x20,0xe0
000254  1fa00000          DCB      0x1f,0xa0,0x00,0x00
000258  20403fc0          DCB      0x20,0x40,0x3f,0xc0
00025c  24402600          DCB      0x24,0x40,0x26,0x00
000260  19c00040          DCB      0x19,0xc0,0x00,0x40
000264  18c02440          DCB      0x18,0xc0,0x24,0x40
000268  24402240          DCB      0x24,0x40,0x22,0x40
00026c  31800000          DCB      0x31,0x80,0x00,0x00
000270  30002040          DCB      0x30,0x00,0x20,0x40
000274  3fc02040          DCB      0x3f,0xc0,0x20,0x40
000278  30000000          DCB      0x30,0x00,0x00,0x00
00027c  20003f80          DCB      0x20,0x00,0x3f,0x80
000280  00400040          DCB      0x00,0x40,0x00,0x40
000284  3f802000          DCB      0x3f,0x80,0x20,0x00
000288  20003e00          DCB      0x20,0x00,0x3e,0x00
00028c  01c00700          DCB      0x01,0xc0,0x07,0x00
000290  38002000          DCB      0x38,0x00,0x20,0x00
000294  380007c0          DCB      0x38,0x00,0x07,0xc0
000298  3c0007c0          DCB      0x3c,0x00,0x07,0xc0
00029c  38000000          DCB      0x38,0x00,0x00,0x00
0002a0  204039c0          DCB      0x20,0x40,0x39,0xc0
0002a4  060039c0          DCB      0x06,0x00,0x39,0xc0
0002a8  20400000          DCB      0x20,0x40,0x00,0x00
0002ac  20003840          DCB      0x20,0x00,0x38,0x40
0002b0  07c03840          DCB      0x07,0xc0,0x38,0x40
0002b4  20000000          DCB      0x20,0x00,0x00,0x00
0002b8  304021c0          DCB      0x30,0x40,0x21,0xc0
0002bc  26403840          DCB      0x26,0x40,0x38,0x40
0002c0  20c00000          DCB      0x20,0xc0,0x00,0x00
0002c4  00000000          DCB      0x00,0x00,0x00,0x00
0002c8  7fe04020          DCB      0x7f,0xe0,0x40,0x20
0002cc  40200000          DCB      0x40,0x20,0x00,0x00
0002d0  00007000          DCB      0x00,0x00,0x70,0x00
0002d4  0c000380          DCB      0x0c,0x00,0x03,0x80
0002d8  00400000          DCB      0x00,0x40,0x00,0x00
0002dc  00004020          DCB      0x00,0x00,0x40,0x20
0002e0  40207fe0          DCB      0x40,0x20,0x7f,0xe0
0002e4  00000000          DCB      0x00,0x00,0x00,0x00
0002e8  00002000          DCB      0x00,0x00,0x20,0x00
0002ec  40002000          DCB      0x40,0x00,0x20,0x00
0002f0  00000000          DCB      0x00,0x00,0x00,0x00
0002f4  00100010          DCB      0x00,0x10,0x00,0x10
0002f8  00100010          DCB      0x00,0x10,0x00,0x10
0002fc  00100010          DCB      0x00,0x10,0x00,0x10
000300  00000000          DCB      0x00,0x00,0x00,0x00
000304  40000000          DCB      0x40,0x00,0x00,0x00
000308  00000000          DCB      0x00,0x00,0x00,0x00
00030c  00000280          DCB      0x00,0x00,0x02,0x80
000310  05400540          DCB      0x05,0x40,0x05,0x40
000314  03c00040          DCB      0x03,0xc0,0x00,0x40
000318  20003fc0          DCB      0x20,0x00,0x3f,0xc0
00031c  04400440          DCB      0x04,0x40,0x04,0x40
000320  03800000          DCB      0x03,0x80,0x00,0x00
000324  00000380          DCB      0x00,0x00,0x03,0x80
000328  04400440          DCB      0x04,0x40,0x04,0x40
00032c  06400000          DCB      0x06,0x40,0x00,0x00
000330  00000380          DCB      0x00,0x00,0x03,0x80
000334  04402440          DCB      0x04,0x40,0x24,0x40
000338  3fc00040          DCB      0x3f,0xc0,0x00,0x40
00033c  00000380          DCB      0x00,0x00,0x03,0x80
000340  05400540          DCB      0x05,0x40,0x05,0x40
000344  03400000          DCB      0x03,0x40,0x00,0x00
000348  00000440          DCB      0x00,0x00,0x04,0x40
00034c  1fc02440          DCB      0x1f,0xc0,0x24,0x40
000350  24402000          DCB      0x24,0x40,0x20,0x00
000354  000002e0          DCB      0x00,0x00,0x02,0xe0
000358  05500550          DCB      0x05,0x50,0x05,0x50
00035c  06500420          DCB      0x06,0x50,0x04,0x20
000360  20403fc0          DCB      0x20,0x40,0x3f,0xc0
000364  04400400          DCB      0x04,0x40,0x04,0x00
000368  03c00040          DCB      0x03,0xc0,0x00,0x40
00036c  00000440          DCB      0x00,0x00,0x04,0x40
000370  27c00040          DCB      0x27,0xc0,0x00,0x40
000374  00000000          DCB      0x00,0x00,0x00,0x00
000378  00100010          DCB      0x00,0x10,0x00,0x10
00037c  041027e0          DCB      0x04,0x10,0x27,0xe0
000380  00000000          DCB      0x00,0x00,0x00,0x00
000384  20403fc0          DCB      0x20,0x40,0x3f,0xc0
000388  01400700          DCB      0x01,0x40,0x07,0x00
00038c  04c00440          DCB      0x04,0xc0,0x04,0x40
000390  20402040          DCB      0x20,0x40,0x20,0x40
000394  3fc00040          DCB      0x3f,0xc0,0x00,0x40
000398  00400000          DCB      0x00,0x40,0x00,0x00
00039c  07c00400          DCB      0x07,0xc0,0x04,0x00
0003a0  07c00400          DCB      0x07,0xc0,0x04,0x00
0003a4  03c00000          DCB      0x03,0xc0,0x00,0x00
0003a8  044007c0          DCB      0x04,0x40,0x07,0xc0
0003ac  04400400          DCB      0x04,0x40,0x04,0x00
0003b0  03c00040          DCB      0x03,0xc0,0x00,0x40
0003b4  00000380          DCB      0x00,0x00,0x03,0x80
0003b8  04400440          DCB      0x04,0x40,0x04,0x40
0003bc  03800000          DCB      0x03,0x80,0x00,0x00
0003c0  041007f0          DCB      0x04,0x10,0x07,0xf0
0003c4  04500440          DCB      0x04,0x50,0x04,0x40
0003c8  03800000          DCB      0x03,0x80,0x00,0x00
0003cc  00000380          DCB      0x00,0x00,0x03,0x80
0003d0  04400450          DCB      0x04,0x40,0x04,0x50
0003d4  07f00010          DCB      0x07,0xf0,0x00,0x10
0003d8  044007c0          DCB      0x04,0x40,0x07,0xc0
0003dc  02400400          DCB      0x02,0x40,0x04,0x00
0003e0  04000000          DCB      0x04,0x00,0x00,0x00
0003e4  00000640          DCB      0x00,0x00,0x06,0x40
0003e8  05400540          DCB      0x05,0x40,0x05,0x40
0003ec  04c00000          DCB      0x04,0xc0,0x00,0x00
0003f0  00000400          DCB      0x00,0x00,0x04,0x00
0003f4  1f800440          DCB      0x1f,0x80,0x04,0x40
0003f8  00400000          DCB      0x00,0x40,0x00,0x00
0003fc  04000780          DCB      0x04,0x00,0x07,0x80
000400  00400440          DCB      0x00,0x40,0x04,0x40
000404  07c00040          DCB      0x07,0xc0,0x00,0x40
000408  04000700          DCB      0x04,0x00,0x07,0x00
00040c  04c00180          DCB      0x04,0xc0,0x01,0x80
000410  06000400          DCB      0x06,0x00,0x04,0x00
000414  060001c0          DCB      0x06,0x00,0x01,0xc0
000418  070001c0          DCB      0x07,0x00,0x01,0xc0
00041c  06000000          DCB      0x06,0x00,0x00,0x00
000420  044006c0          DCB      0x04,0x40,0x06,0xc0
000424  010006c0          DCB      0x01,0x00,0x06,0xc0
000428  04400000          DCB      0x04,0x40,0x00,0x00
00042c  04100710          DCB      0x04,0x10,0x07,0x10
000430  04e00180          DCB      0x04,0xe0,0x01,0x80
000434  06000400          DCB      0x06,0x00,0x04,0x00
000438  00000440          DCB      0x00,0x00,0x04,0x40
00043c  05c00640          DCB      0x05,0xc0,0x06,0x40
000440  04400000          DCB      0x04,0x40,0x00,0x00
000444  00000000          DCB      0x00,0x00,0x00,0x00
000448  04007be0          DCB      0x04,0x00,0x7b,0xe0
00044c  40200000          DCB      0x40,0x20,0x00,0x00
000450  00000000          DCB      0x00,0x00,0x00,0x00
000454  0000fff0          DCB      0x00,0x00,0xff,0xf0
000458  00000000          DCB      0x00,0x00,0x00,0x00
00045c  00004020          DCB      0x00,0x00,0x40,0x20
000460  7be00400          DCB      0x7b,0xe0,0x04,0x00
000464  00000000          DCB      0x00,0x00,0x00,0x00
000468  40008000          DCB      0x40,0x00,0x80,0x00
00046c  40002000          DCB      0x40,0x00,0x20,0x00
000470  20004000          DCB      0x20,0x00,0x40,0x00
                  asc2_1608
000474  00000000          DCB      0x00,0x00,0x00,0x00
000478  00000000          DCB      0x00,0x00,0x00,0x00
00047c  00000000          DCB      0x00,0x00,0x00,0x00
000480  00000000          DCB      0x00,0x00,0x00,0x00
000484  00000000          DCB      0x00,0x00,0x00,0x00
000488  00001fcc          DCB      0x00,0x00,0x1f,0xcc
00048c  000c0000          DCB      0x00,0x0c,0x00,0x00
000490  00000000          DCB      0x00,0x00,0x00,0x00
000494  00000800          DCB      0x00,0x00,0x08,0x00
000498  30006000          DCB      0x30,0x00,0x60,0x00
00049c  08003000          DCB      0x08,0x00,0x30,0x00
0004a0  60000000          DCB      0x60,0x00,0x00,0x00
0004a4  022003fc          DCB      0x02,0x20,0x03,0xfc
0004a8  1e200220          DCB      0x1e,0x20,0x02,0x20
0004ac  03fc1e20          DCB      0x03,0xfc,0x1e,0x20
0004b0  02200000          DCB      0x02,0x20,0x00,0x00
0004b4  00000e18          DCB      0x00,0x00,0x0e,0x18
0004b8  11043fff          DCB      0x11,0x04,0x3f,0xff
0004bc  10840c78          DCB      0x10,0x84,0x0c,0x78
0004c0  00000000          DCB      0x00,0x00,0x00,0x00
0004c4  0f001084          DCB      0x0f,0x00,0x10,0x84
0004c8  0f3800c0          DCB      0x0f,0x38,0x00,0xc0
0004cc  07781884          DCB      0x07,0x78,0x18,0x84
0004d0  00780000          DCB      0x00,0x78,0x00,0x00
0004d4  00780f84          DCB      0x00,0x78,0x0f,0x84
0004d8  10c41124          DCB      0x10,0xc4,0x11,0x24
0004dc  0e9800e4          DCB      0x0e,0x98,0x00,0xe4
0004e0  00840008          DCB      0x00,0x84,0x00,0x08
0004e4  08006800          DCB      0x08,0x00,0x68,0x00
0004e8  70000000          DCB      0x70,0x00,0x00,0x00
0004ec  00000000          DCB      0x00,0x00,0x00,0x00
0004f0  00000000          DCB      0x00,0x00,0x00,0x00
0004f4  00000000          DCB      0x00,0x00,0x00,0x00
0004f8  000007e0          DCB      0x00,0x00,0x07,0xe0
0004fc  18182004          DCB      0x18,0x18,0x20,0x04
000500  40020000          DCB      0x40,0x02,0x00,0x00
000504  00004002          DCB      0x00,0x00,0x40,0x02
000508  20041818          DCB      0x20,0x04,0x18,0x18
00050c  07e00000          DCB      0x07,0xe0,0x00,0x00
000510  00000000          DCB      0x00,0x00,0x00,0x00
000514  02400240          DCB      0x02,0x40,0x02,0x40
000518  01800ff0          DCB      0x01,0x80,0x0f,0xf0
00051c  01800240          DCB      0x01,0x80,0x02,0x40
000520  02400000          DCB      0x02,0x40,0x00,0x00
000524  00800080          DCB      0x00,0x80,0x00,0x80
000528  00800ff8          DCB      0x00,0x80,0x0f,0xf8
00052c  00800080          DCB      0x00,0x80,0x00,0x80
000530  00800000          DCB      0x00,0x80,0x00,0x00
000534  0001000d          DCB      0x00,0x01,0x00,0x0d
000538  000e0000          DCB      0x00,0x0e,0x00,0x00
00053c  00000000          DCB      0x00,0x00,0x00,0x00
000540  00000000          DCB      0x00,0x00,0x00,0x00
000544  00000080          DCB      0x00,0x00,0x00,0x80
000548  00800080          DCB      0x00,0x80,0x00,0x80
00054c  00800080          DCB      0x00,0x80,0x00,0x80
000550  00800080          DCB      0x00,0x80,0x00,0x80
000554  0000000c          DCB      0x00,0x00,0x00,0x0c
000558  000c0000          DCB      0x00,0x0c,0x00,0x00
00055c  00000000          DCB      0x00,0x00,0x00,0x00
000560  00000000          DCB      0x00,0x00,0x00,0x00
000564  00000006          DCB      0x00,0x00,0x00,0x06
000568  00180060          DCB      0x00,0x18,0x00,0x60
00056c  01800600          DCB      0x01,0x80,0x06,0x00
000570  18002000          DCB      0x18,0x00,0x20,0x00
000574  000007f0          DCB      0x00,0x00,0x07,0xf0
000578  08081004          DCB      0x08,0x08,0x10,0x04
00057c  10040808          DCB      0x10,0x04,0x08,0x08
000580  07f00000          DCB      0x07,0xf0,0x00,0x00
000584  00000804          DCB      0x00,0x00,0x08,0x04
000588  08041ffc          DCB      0x08,0x04,0x1f,0xfc
00058c  00040004          DCB      0x00,0x04,0x00,0x04
000590  00000000          DCB      0x00,0x00,0x00,0x00
000594  00000e0c          DCB      0x00,0x00,0x0e,0x0c
000598  10141024          DCB      0x10,0x14,0x10,0x24
00059c  10441184          DCB      0x10,0x44,0x11,0x84
0005a0  0e0c0000          DCB      0x0e,0x0c,0x00,0x00
0005a4  00000c18          DCB      0x00,0x00,0x0c,0x18
0005a8  10041104          DCB      0x10,0x04,0x11,0x04
0005ac  11041288          DCB      0x11,0x04,0x12,0x88
0005b0  0c700000          DCB      0x0c,0x70,0x00,0x00
0005b4  000000e0          DCB      0x00,0x00,0x00,0xe0
0005b8  03200424          DCB      0x03,0x20,0x04,0x24
0005bc  08241ffc          DCB      0x08,0x24,0x1f,0xfc
0005c0  00240000          DCB      0x00,0x24,0x00,0x00
0005c4  00001f98          DCB      0x00,0x00,0x1f,0x98
0005c8  10841104          DCB      0x10,0x84,0x11,0x04
0005cc  11041088          DCB      0x11,0x04,0x10,0x88
0005d0  10700000          DCB      0x10,0x70,0x00,0x00
0005d4  000007f0          DCB      0x00,0x00,0x07,0xf0
0005d8  08881104          DCB      0x08,0x88,0x11,0x04
0005dc  11041888          DCB      0x11,0x04,0x18,0x88
0005e0  00700000          DCB      0x00,0x70,0x00,0x00
0005e4  00001c00          DCB      0x00,0x00,0x1c,0x00
0005e8  100010fc          DCB      0x10,0x00,0x10,0xfc
0005ec  13001c00          DCB      0x13,0x00,0x1c,0x00
0005f0  10000000          DCB      0x10,0x00,0x00,0x00
0005f4  00000e38          DCB      0x00,0x00,0x0e,0x38
0005f8  11441084          DCB      0x11,0x44,0x10,0x84
0005fc  10841144          DCB      0x10,0x84,0x11,0x44
000600  0e380000          DCB      0x0e,0x38,0x00,0x00
000604  00000700          DCB      0x00,0x00,0x07,0x00
000608  088c1044          DCB      0x08,0x8c,0x10,0x44
00060c  10440888          DCB      0x10,0x44,0x08,0x88
000610  07f00000          DCB      0x07,0xf0,0x00,0x00
000614  00000000          DCB      0x00,0x00,0x00,0x00
000618  0000030c          DCB      0x00,0x00,0x03,0x0c
00061c  030c0000          DCB      0x03,0x0c,0x00,0x00
000620  00000000          DCB      0x00,0x00,0x00,0x00
000624  00000000          DCB      0x00,0x00,0x00,0x00
000628  00010106          DCB      0x00,0x01,0x01,0x06
00062c  00000000          DCB      0x00,0x00,0x00,0x00
000630  00000000          DCB      0x00,0x00,0x00,0x00
000634  00000080          DCB      0x00,0x00,0x00,0x80
000638  01400220          DCB      0x01,0x40,0x02,0x20
00063c  04100808          DCB      0x04,0x10,0x08,0x08
000640  10040000          DCB      0x10,0x04,0x00,0x00
000644  02200220          DCB      0x02,0x20,0x02,0x20
000648  02200220          DCB      0x02,0x20,0x02,0x20
00064c  02200220          DCB      0x02,0x20,0x02,0x20
000650  02200000          DCB      0x02,0x20,0x00,0x00
000654  00001004          DCB      0x00,0x00,0x10,0x04
000658  08080410          DCB      0x08,0x08,0x04,0x10
00065c  02200140          DCB      0x02,0x20,0x01,0x40
000660  00800000          DCB      0x00,0x80,0x00,0x00
000664  00000e00          DCB      0x00,0x00,0x0e,0x00
000668  1200100c          DCB      0x12,0x00,0x10,0x0c
00066c  106c1080          DCB      0x10,0x6c,0x10,0x80
000670  0f000000          DCB      0x0f,0x00,0x00,0x00
000674  03e00c18          DCB      0x03,0xe0,0x0c,0x18
000678  13e41424          DCB      0x13,0xe4,0x14,0x24
00067c  17c40828          DCB      0x17,0xc4,0x08,0x28
000680  07d00000          DCB      0x07,0xd0,0x00,0x00
000684  0004003c          DCB      0x00,0x04,0x00,0x3c
000688  03c41c40          DCB      0x03,0xc4,0x1c,0x40
00068c  074000e4          DCB      0x07,0x40,0x00,0xe4
000690  001c0004          DCB      0x00,0x1c,0x00,0x04
000694  10041ffc          DCB      0x10,0x04,0x1f,0xfc
000698  11041104          DCB      0x11,0x04,0x11,0x04
00069c  11040e88          DCB      0x11,0x04,0x0e,0x88
0006a0  00700000          DCB      0x00,0x70,0x00,0x00
0006a4  03e00c18          DCB      0x03,0xe0,0x0c,0x18
0006a8  10041004          DCB      0x10,0x04,0x10,0x04
0006ac  10041008          DCB      0x10,0x04,0x10,0x08
0006b0  1c100000          DCB      0x1c,0x10,0x00,0x00
0006b4  10041ffc          DCB      0x10,0x04,0x1f,0xfc
0006b8  10041004          DCB      0x10,0x04,0x10,0x04
0006bc  10040808          DCB      0x10,0x04,0x08,0x08
0006c0  07f00000          DCB      0x07,0xf0,0x00,0x00
0006c4  10041ffc          DCB      0x10,0x04,0x1f,0xfc
0006c8  11041104          DCB      0x11,0x04,0x11,0x04
0006cc  17c41004          DCB      0x17,0xc4,0x10,0x04
0006d0  08180000          DCB      0x08,0x18,0x00,0x00
0006d4  10041ffc          DCB      0x10,0x04,0x1f,0xfc
0006d8  11041100          DCB      0x11,0x04,0x11,0x00
0006dc  17c01000          DCB      0x17,0xc0,0x10,0x00
0006e0  08000000          DCB      0x08,0x00,0x00,0x00
0006e4  03e00c18          DCB      0x03,0xe0,0x0c,0x18
0006e8  10041004          DCB      0x10,0x04,0x10,0x04
0006ec  10441c78          DCB      0x10,0x44,0x1c,0x78
0006f0  00400000          DCB      0x00,0x40,0x00,0x00
0006f4  10041ffc          DCB      0x10,0x04,0x1f,0xfc
0006f8  10840080          DCB      0x10,0x84,0x00,0x80
0006fc  00801084          DCB      0x00,0x80,0x10,0x84
000700  1ffc1004          DCB      0x1f,0xfc,0x10,0x04
000704  00001004          DCB      0x00,0x00,0x10,0x04
000708  10041ffc          DCB      0x10,0x04,0x1f,0xfc
00070c  10041004          DCB      0x10,0x04,0x10,0x04
000710  00000000          DCB      0x00,0x00,0x00,0x00
000714  00030001          DCB      0x00,0x03,0x00,0x01
000718  10011001          DCB      0x10,0x01,0x10,0x01
00071c  1ffe1000          DCB      0x1f,0xfe,0x10,0x00
000720  10000000          DCB      0x10,0x00,0x00,0x00
000724  10041ffc          DCB      0x10,0x04,0x1f,0xfc
000728  11040380          DCB      0x11,0x04,0x03,0x80
00072c  1464181c          DCB      0x14,0x64,0x18,0x1c
000730  10040000          DCB      0x10,0x04,0x00,0x00
000734  10041ffc          DCB      0x10,0x04,0x1f,0xfc
000738  10040004          DCB      0x10,0x04,0x00,0x04
00073c  00040004          DCB      0x00,0x04,0x00,0x04
000740  000c0000          DCB      0x00,0x0c,0x00,0x00
000744  10041ffc          DCB      0x10,0x04,0x1f,0xfc
000748  1f0000fc          DCB      0x1f,0x00,0x00,0xfc
00074c  1f001ffc          DCB      0x1f,0x00,0x1f,0xfc
000750  10040000          DCB      0x10,0x04,0x00,0x00
000754  10041ffc          DCB      0x10,0x04,0x1f,0xfc
000758  0c040300          DCB      0x0c,0x04,0x03,0x00
00075c  00e01018          DCB      0x00,0xe0,0x10,0x18
000760  1ffc1000          DCB      0x1f,0xfc,0x10,0x00
000764  07f00808          DCB      0x07,0xf0,0x08,0x08
000768  10041004          DCB      0x10,0x04,0x10,0x04
00076c  10040808          DCB      0x10,0x04,0x08,0x08
000770  07f00000          DCB      0x07,0xf0,0x00,0x00
000774  10041ffc          DCB      0x10,0x04,0x1f,0xfc
000778  10841080          DCB      0x10,0x84,0x10,0x80
00077c  10801080          DCB      0x10,0x80,0x10,0x80
000780  0f000000          DCB      0x0f,0x00,0x00,0x00
000784  07f00818          DCB      0x07,0xf0,0x08,0x18
000788  10241024          DCB      0x10,0x24,0x10,0x24
00078c  101c080a          DCB      0x10,0x1c,0x08,0x0a
000790  07f20000          DCB      0x07,0xf2,0x00,0x00
000794  10041ffc          DCB      0x10,0x04,0x1f,0xfc
000798  11041100          DCB      0x11,0x04,0x11,0x00
00079c  11c01130          DCB      0x11,0xc0,0x11,0x30
0007a0  0e0c0004          DCB      0x0e,0x0c,0x00,0x04
0007a4  00000e1c          DCB      0x00,0x00,0x0e,0x1c
0007a8  11041084          DCB      0x11,0x04,0x10,0x84
0007ac  10841044          DCB      0x10,0x84,0x10,0x44
0007b0  1c380000          DCB      0x1c,0x38,0x00,0x00
0007b4  18001000          DCB      0x18,0x00,0x10,0x00
0007b8  10041ffc          DCB      0x10,0x04,0x1f,0xfc
0007bc  10041000          DCB      0x10,0x04,0x10,0x00
0007c0  18000000          DCB      0x18,0x00,0x00,0x00
0007c4  10001ff8          DCB      0x10,0x00,0x1f,0xf8
0007c8  10040004          DCB      0x10,0x04,0x00,0x04
0007cc  00041004          DCB      0x00,0x04,0x10,0x04
0007d0  1ff81000          DCB      0x1f,0xf8,0x10,0x00
0007d4  10001e00          DCB      0x10,0x00,0x1e,0x00
0007d8  11e0001c          DCB      0x11,0xe0,0x00,0x1c
0007dc  00701380          DCB      0x00,0x70,0x13,0x80
0007e0  1c001000          DCB      0x1c,0x00,0x10,0x00
0007e4  1fc0103c          DCB      0x1f,0xc0,0x10,0x3c
0007e8  00e01f00          DCB      0x00,0xe0,0x1f,0x00
0007ec  00e0103c          DCB      0x00,0xe0,0x10,0x3c
0007f0  1fc00000          DCB      0x1f,0xc0,0x00,0x00
0007f4  1004180c          DCB      0x10,0x04,0x18,0x0c
0007f8  163401c0          DCB      0x16,0x34,0x01,0xc0
0007fc  01c01634          DCB      0x01,0xc0,0x16,0x34
000800  180c1004          DCB      0x18,0x0c,0x10,0x04
000804  10001c00          DCB      0x10,0x00,0x1c,0x00
000808  130400fc          DCB      0x13,0x04,0x00,0xfc
00080c  13041c00          DCB      0x13,0x04,0x1c,0x00
000810  10000000          DCB      0x10,0x00,0x00,0x00
000814  0804101c          DCB      0x08,0x04,0x10,0x1c
000818  10641084          DCB      0x10,0x64,0x10,0x84
00081c  13041c04          DCB      0x13,0x04,0x1c,0x04
000820  10180000          DCB      0x10,0x18,0x00,0x00
000824  00000000          DCB      0x00,0x00,0x00,0x00
000828  00007ffe          DCB      0x00,0x00,0x7f,0xfe
00082c  40024002          DCB      0x40,0x02,0x40,0x02
000830  40020000          DCB      0x40,0x02,0x00,0x00
000834  00003000          DCB      0x00,0x00,0x30,0x00
000838  0c000380          DCB      0x0c,0x00,0x03,0x80
00083c  0060001c          DCB      0x00,0x60,0x00,0x1c
000840  00030000          DCB      0x00,0x03,0x00,0x00
000844  00004002          DCB      0x00,0x00,0x40,0x02
000848  40024002          DCB      0x40,0x02,0x40,0x02
00084c  7ffe0000          DCB      0x7f,0xfe,0x00,0x00
000850  00000000          DCB      0x00,0x00,0x00,0x00
000854  00000000          DCB      0x00,0x00,0x00,0x00
000858  20004000          DCB      0x20,0x00,0x40,0x00
00085c  40004000          DCB      0x40,0x00,0x40,0x00
000860  20000000          DCB      0x20,0x00,0x00,0x00
000864  00010001          DCB      0x00,0x01,0x00,0x01
000868  00010001          DCB      0x00,0x01,0x00,0x01
00086c  00010001          DCB      0x00,0x01,0x00,0x01
000870  00010001          DCB      0x00,0x01,0x00,0x01
000874  00004000          DCB      0x00,0x00,0x40,0x00
000878  40002000          DCB      0x40,0x00,0x20,0x00
00087c  00000000          DCB      0x00,0x00,0x00,0x00
000880  00000000          DCB      0x00,0x00,0x00,0x00
000884  00000098          DCB      0x00,0x00,0x00,0x98
000888  01240144          DCB      0x01,0x24,0x01,0x44
00088c  01440144          DCB      0x01,0x44,0x01,0x44
000890  00fc0004          DCB      0x00,0xfc,0x00,0x04
000894  10001ffc          DCB      0x10,0x00,0x1f,0xfc
000898  00880104          DCB      0x00,0x88,0x01,0x04
00089c  01040088          DCB      0x01,0x04,0x00,0x88
0008a0  00700000          DCB      0x00,0x70,0x00,0x00
0008a4  00000070          DCB      0x00,0x00,0x00,0x70
0008a8  00880104          DCB      0x00,0x88,0x01,0x04
0008ac  01040104          DCB      0x01,0x04,0x01,0x04
0008b0  00880000          DCB      0x00,0x88,0x00,0x00
0008b4  00000070          DCB      0x00,0x00,0x00,0x70
0008b8  00880104          DCB      0x00,0x88,0x01,0x04
0008bc  01041108          DCB      0x01,0x04,0x11,0x08
0008c0  1ffc0004          DCB      0x1f,0xfc,0x00,0x04
0008c4  000000f8          DCB      0x00,0x00,0x00,0xf8
0008c8  01440144          DCB      0x01,0x44,0x01,0x44
0008cc  01440144          DCB      0x01,0x44,0x01,0x44
0008d0  00c80000          DCB      0x00,0xc8,0x00,0x00
0008d4  00000104          DCB      0x00,0x00,0x01,0x04
0008d8  01040ffc          DCB      0x01,0x04,0x0f,0xfc
0008dc  11041104          DCB      0x11,0x04,0x11,0x04
0008e0  11001800          DCB      0x11,0x00,0x18,0x00
0008e4  000000d6          DCB      0x00,0x00,0x00,0xd6
0008e8  01290129          DCB      0x01,0x29,0x01,0x29
0008ec  012901c9          DCB      0x01,0x29,0x01,0xc9
0008f0  01060000          DCB      0x01,0x06,0x00,0x00
0008f4  10041ffc          DCB      0x10,0x04,0x1f,0xfc
0008f8  00840100          DCB      0x00,0x84,0x01,0x00
0008fc  01000104          DCB      0x01,0x00,0x01,0x04
000900  00fc0004          DCB      0x00,0xfc,0x00,0x04
000904  00000104          DCB      0x00,0x00,0x01,0x04
000908  190419fc          DCB      0x19,0x04,0x19,0xfc
00090c  00040004          DCB      0x00,0x04,0x00,0x04
000910  00000000          DCB      0x00,0x00,0x00,0x00
000914  00000003          DCB      0x00,0x00,0x00,0x03
000918  00010101          DCB      0x00,0x01,0x01,0x01
00091c  190119fe          DCB      0x19,0x01,0x19,0xfe
000920  00000000          DCB      0x00,0x00,0x00,0x00
000924  10041ffc          DCB      0x10,0x04,0x1f,0xfc
000928  00240040          DCB      0x00,0x24,0x00,0x40
00092c  01b4010c          DCB      0x01,0xb4,0x01,0x0c
000930  01040000          DCB      0x01,0x04,0x00,0x00
000934  00001004          DCB      0x00,0x00,0x10,0x04
000938  10041ffc          DCB      0x10,0x04,0x1f,0xfc
00093c  00040004          DCB      0x00,0x04,0x00,0x04
000940  00000000          DCB      0x00,0x00,0x00,0x00
000944  010401fc          DCB      0x01,0x04,0x01,0xfc
000948  01040100          DCB      0x01,0x04,0x01,0x00
00094c  01fc0104          DCB      0x01,0xfc,0x01,0x04
000950  010000fc          DCB      0x01,0x00,0x00,0xfc
000954  010401fc          DCB      0x01,0x04,0x01,0xfc
000958  00840100          DCB      0x00,0x84,0x01,0x00
00095c  01000104          DCB      0x01,0x00,0x01,0x04
000960  00fc0004          DCB      0x00,0xfc,0x00,0x04
000964  000000f8          DCB      0x00,0x00,0x00,0xf8
000968  01040104          DCB      0x01,0x04,0x01,0x04
00096c  01040104          DCB      0x01,0x04,0x01,0x04
000970  00f80000          DCB      0x00,0xf8,0x00,0x00
000974  010101ff          DCB      0x01,0x01,0x01,0xff
000978  00850104          DCB      0x00,0x85,0x01,0x04
00097c  01040088          DCB      0x01,0x04,0x00,0x88
000980  00700000          DCB      0x00,0x70,0x00,0x00
000984  00000070          DCB      0x00,0x00,0x00,0x70
000988  00880104          DCB      0x00,0x88,0x01,0x04
00098c  01040105          DCB      0x01,0x04,0x01,0x05
000990  01ff0001          DCB      0x01,0xff,0x00,0x01
000994  01040104          DCB      0x01,0x04,0x01,0x04
000998  01fc0084          DCB      0x01,0xfc,0x00,0x84
00099c  01040100          DCB      0x01,0x04,0x01,0x00
0009a0  01800000          DCB      0x01,0x80,0x00,0x00
0009a4  000000cc          DCB      0x00,0x00,0x00,0xcc
0009a8  01240124          DCB      0x01,0x24,0x01,0x24
0009ac  01240124          DCB      0x01,0x24,0x01,0x24
0009b0  01980000          DCB      0x01,0x98,0x00,0x00
0009b4  00000100          DCB      0x00,0x00,0x01,0x00
0009b8  010007f8          DCB      0x01,0x00,0x07,0xf8
0009bc  01040104          DCB      0x01,0x04,0x01,0x04
0009c0  00000000          DCB      0x00,0x00,0x00,0x00
0009c4  010001f8          DCB      0x01,0x00,0x01,0xf8
0009c8  00040004          DCB      0x00,0x04,0x00,0x04
0009cc  00040108          DCB      0x00,0x04,0x01,0x08
0009d0  01fc0004          DCB      0x01,0xfc,0x00,0x04
0009d4  01000180          DCB      0x01,0x00,0x01,0x80
0009d8  0170000c          DCB      0x01,0x70,0x00,0x0c
0009dc  00100160          DCB      0x00,0x10,0x01,0x60
0009e0  01800100          DCB      0x01,0x80,0x01,0x00
0009e4  01f0010c          DCB      0x01,0xf0,0x01,0x0c
0009e8  003001c0          DCB      0x00,0x30,0x01,0xc0
0009ec  0030010c          DCB      0x00,0x30,0x01,0x0c
0009f0  01f00100          DCB      0x01,0xf0,0x01,0x00
0009f4  00000104          DCB      0x00,0x00,0x01,0x04
0009f8  018c0074          DCB      0x01,0x8c,0x00,0x74
0009fc  0170018c          DCB      0x01,0x70,0x01,0x8c
000a00  01040000          DCB      0x01,0x04,0x00,0x00
000a04  01010181          DCB      0x01,0x01,0x01,0x81
000a08  0171000e          DCB      0x01,0x71,0x00,0x0e
000a0c  00180160          DCB      0x00,0x18,0x01,0x60
000a10  01800100          DCB      0x01,0x80,0x01,0x00
000a14  00000184          DCB      0x00,0x00,0x01,0x84
000a18  010c0134          DCB      0x01,0x0c,0x01,0x34
000a1c  01440184          DCB      0x01,0x44,0x01,0x84
000a20  010c0000          DCB      0x01,0x0c,0x00,0x00
000a24  00000000          DCB      0x00,0x00,0x00,0x00
000a28  00000000          DCB      0x00,0x00,0x00,0x00
000a2c  01003efc          DCB      0x01,0x00,0x3e,0xfc
000a30  40024002          DCB      0x40,0x02,0x40,0x02
000a34  00000000          DCB      0x00,0x00,0x00,0x00
000a38  00000000          DCB      0x00,0x00,0x00,0x00
000a3c  ffff0000          DCB      0xff,0xff,0x00,0x00
000a40  00000000          DCB      0x00,0x00,0x00,0x00
000a44  00004002          DCB      0x00,0x00,0x40,0x02
000a48  40023efc          DCB      0x40,0x02,0x3e,0xfc
000a4c  01000000          DCB      0x01,0x00,0x00,0x00
000a50  00000000          DCB      0x00,0x00,0x00,0x00
000a54  00006000          DCB      0x00,0x00,0x60,0x00
000a58  80008000          DCB      0x80,0x00,0x80,0x00
000a5c  40004000          DCB      0x40,0x00,0x40,0x00
000a60  20002000          DCB      0x20,0x00,0x20,0x00

                          AREA ||.data||, DATA, ALIGN=1

                  POINT_COLOR
000000  0000              DCW      0x0000
                  BACK_COLOR
000002  ffff              DCW      0xffff
